
uartApp.elf:     file format elf32-littlenios2
uartApp.elf
architecture: nios2:r1, flags 0x00000112:
EXEC_P, HAS_SYMS, D_PAGED
start address 0x00800230

Program Header:
    LOAD off    0x00001000 vaddr 0x00800000 paddr 0x00800000 align 2**12
         filesz 0x00000020 memsz 0x00000020 flags r-x
    LOAD off    0x00001020 vaddr 0x00800020 paddr 0x00800020 align 2**12
         filesz 0x000109e4 memsz 0x000109e4 flags r-x
    LOAD off    0x00011a04 vaddr 0x00810a04 paddr 0x008125b4 align 2**12
         filesz 0x00001bb0 memsz 0x00001bb0 flags rw-
    LOAD off    0x00014164 vaddr 0x00814164 paddr 0x00814164 align 2**12
         filesz 0x00000000 memsz 0x00000160 flags rw-

Sections:
Idx Name          Size      VMA       LMA       File off  Algn
  0 .entry        00000020  00800000  00800000  00001000  2**5
                  CONTENTS, ALLOC, LOAD, READONLY, CODE
  1 .exceptions   00000210  00800020  00800020  00001020  2**2
                  CONTENTS, ALLOC, LOAD, READONLY, CODE
  2 .text         000104a0  00800230  00800230  00001230  2**2
                  CONTENTS, ALLOC, LOAD, READONLY, CODE
  3 .rodata       00000334  008106d0  008106d0  000116d0  2**2
                  CONTENTS, ALLOC, LOAD, READONLY, DATA
  4 .rwdata       00001bb0  00810a04  008125b4  00011a04  2**2
                  CONTENTS, ALLOC, LOAD, DATA, SMALL_DATA
  5 .bss          00000160  00814164  00814164  00014164  2**2
                  ALLOC, SMALL_DATA
  6 .sdram        00000000  008142c4  008142c4  000135b4  2**0
                  CONTENTS
  7 .onchip_memory2 00000000  01020000  01020000  000135b4  2**0
                  CONTENTS
  8 .comment      00000023  00000000  00000000  000135b4  2**0
                  CONTENTS, READONLY
  9 .debug_aranges 00000fd0  00000000  00000000  000135d8  2**3
                  CONTENTS, READONLY, DEBUGGING
 10 .debug_info   00026707  00000000  00000000  000145a8  2**0
                  CONTENTS, READONLY, DEBUGGING
 11 .debug_abbrev 00009cb7  00000000  00000000  0003acaf  2**0
                  CONTENTS, READONLY, DEBUGGING
 12 .debug_line   0000c1f0  00000000  00000000  00044966  2**0
                  CONTENTS, READONLY, DEBUGGING
 13 .debug_frame  000023b4  00000000  00000000  00050b58  2**2
                  CONTENTS, READONLY, DEBUGGING
 14 .debug_str    00003be3  00000000  00000000  00052f0c  2**0
                  CONTENTS, READONLY, DEBUGGING
 15 .debug_loc    00017c27  00000000  00000000  00056aef  2**0
                  CONTENTS, READONLY, DEBUGGING
 16 .debug_alt_sim_info 00000040  00000000  00000000  0006e718  2**2
                  CONTENTS, READONLY, DEBUGGING
 17 .debug_ranges 00001978  00000000  00000000  0006e758  2**3
                  CONTENTS, READONLY, DEBUGGING
 18 .thread_model 00000003  00000000  00000000  00073542  2**0
                  CONTENTS, READONLY
 19 .cpu          0000000a  00000000  00000000  00073545  2**0
                  CONTENTS, READONLY
 20 .qsys         00000001  00000000  00000000  0007354f  2**0
                  CONTENTS, READONLY
 21 .simulation_enabled 00000001  00000000  00000000  00073550  2**0
                  CONTENTS, READONLY
 22 .sysid_hash   00000004  00000000  00000000  00073551  2**0
                  CONTENTS, READONLY
 23 .sysid_base   00000004  00000000  00000000  00073555  2**0
                  CONTENTS, READONLY
 24 .sysid_time   00000004  00000000  00000000  00073559  2**0
                  CONTENTS, READONLY
 25 .stderr_dev   00000009  00000000  00000000  0007355d  2**0
                  CONTENTS, READONLY
 26 .stdin_dev    00000009  00000000  00000000  00073566  2**0
                  CONTENTS, READONLY
 27 .stdout_dev   00000009  00000000  00000000  0007356f  2**0
                  CONTENTS, READONLY
 28 .sopc_system_name 0000000b  00000000  00000000  00073578  2**0
                  CONTENTS, READONLY
 29 .quartus_project_dir 0000002b  00000000  00000000  00073583  2**0
                  CONTENTS, READONLY
 30 .jdi          00005041  00000000  00000000  000735ae  2**0
                  CONTENTS, READONLY
 31 .sopcinfo     0004a5f4  00000000  00000000  000785ef  2**0
                  CONTENTS, READONLY
SYMBOL TABLE:
00800000 l    d  .entry	00000000 .entry
00800020 l    d  .exceptions	00000000 .exceptions
00800230 l    d  .text	00000000 .text
008106d0 l    d  .rodata	00000000 .rodata
00810a04 l    d  .rwdata	00000000 .rwdata
00814164 l    d  .bss	00000000 .bss
008142c4 l    d  .sdram	00000000 .sdram
01020000 l    d  .onchip_memory2	00000000 .onchip_memory2
00000000 l    d  .comment	00000000 .comment
00000000 l    d  .debug_aranges	00000000 .debug_aranges
00000000 l    d  .debug_info	00000000 .debug_info
00000000 l    d  .debug_abbrev	00000000 .debug_abbrev
00000000 l    d  .debug_line	00000000 .debug_line
00000000 l    d  .debug_frame	00000000 .debug_frame
00000000 l    d  .debug_str	00000000 .debug_str
00000000 l    d  .debug_loc	00000000 .debug_loc
00000000 l    d  .debug_alt_sim_info	00000000 .debug_alt_sim_info
00000000 l    d  .debug_ranges	00000000 .debug_ranges
00000000 l    df *ABS*	00000000 ../uartApp_bsp//obj/HAL/src/crt0.o
00800268 l       .text	00000000 alt_after_alt_main
00000000 l    df *ABS*	00000000 alt_irq_handler.c
00000000 l    df *ABS*	00000000 alt_instruction_exception_entry.c
00000000 l    df *ABS*	00000000 hello_world.c
00000000 l    df *ABS*	00000000 getc.c
00000000 l    df *ABS*	00000000 impure.c
00810a04 l     O .rwdata	00000424 impure_data
00000000 l    df *ABS*	00000000 printf.c
00000000 l    df *ABS*	00000000 puts.c
00000000 l    df *ABS*	00000000 rget.c
00000000 l    df *ABS*	00000000 strlen.c
00000000 l    df *ABS*	00000000 vfprintf.c
0081074a l     O .rodata	00000010 zeroes.4404
00802958 l     F .text	000000bc __sbprintf
0081075a l     O .rodata	00000010 blanks.4403
00000000 l    df *ABS*	00000000 wsetup.c
00000000 l    df *ABS*	00000000 dtoa.c
00802b68 l     F .text	00000228 quorem
00000000 l    df *ABS*	00000000 fflush.c
00000000 l    df *ABS*	00000000 findfp.c
008046c0 l     F .text	00000008 __fp_unlock
008046d4 l     F .text	0000019c __sinit.part.1
00804870 l     F .text	00000008 __fp_lock
00000000 l    df *ABS*	00000000 mallocr.c
00000000 l    df *ABS*	00000000 fvwrite.c
00000000 l    df *ABS*	00000000 fwalk.c
00000000 l    df *ABS*	00000000 locale.c
00810e48 l     O .rwdata	00000020 lc_ctype_charset
00810e28 l     O .rwdata	00000020 lc_message_charset
00810e68 l     O .rwdata	00000038 lconv
00000000 l    df *ABS*	00000000 makebuf.c
00000000 l    df *ABS*	00000000 mallocr.c
00000000 l    df *ABS*	00000000 memchr.c
00000000 l    df *ABS*	00000000 memcpy.c
00000000 l    df *ABS*	00000000 memmove.c
00000000 l    df *ABS*	00000000 memset.c
00000000 l    df *ABS*	00000000 mprec.c
00810788 l     O .rodata	0000000c p05.2768
00000000 l    df *ABS*	00000000 mallocr.c
00000000 l    df *ABS*	00000000 refill.c
00807a64 l     F .text	0000001c lflush
00000000 l    df *ABS*	00000000 s_fpclassify.c
00000000 l    df *ABS*	00000000 sbrkr.c
00000000 l    df *ABS*	00000000 stdio.c
00000000 l    df *ABS*	00000000 strcmp.c
00000000 l    df *ABS*	00000000 vfprintf.c
00807f34 l     F .text	000000fc __sprint_r.part.0
008108ac l     O .rodata	00000010 zeroes.4349
00809570 l     F .text	000000bc __sbprintf
008108bc l     O .rodata	00000010 blanks.4348
00000000 l    df *ABS*	00000000 writer.c
00000000 l    df *ABS*	00000000 closer.c
00000000 l    df *ABS*	00000000 mallocr.c
00000000 l    df *ABS*	00000000 fclose.c
00000000 l    df *ABS*	00000000 fputwc.c
00000000 l    df *ABS*	00000000 fstatr.c
00000000 l    df *ABS*	00000000 int_errno.c
00000000 l    df *ABS*	00000000 isattyr.c
00000000 l    df *ABS*	00000000 lseekr.c
00000000 l    df *ABS*	00000000 readr.c
00000000 l    df *ABS*	00000000 wbuf.c
00000000 l    df *ABS*	00000000 wcrtomb.c
00000000 l    df *ABS*	00000000 wctomb_r.c
00000000 l    df *ABS*	00000000 libgcc2.c
00000000 l    df *ABS*	00000000 libgcc2.c
00000000 l    df *ABS*	00000000 lib2-divmod.c
00000000 l    df *ABS*	00000000 lib2-mul.c
00000000 l    df *ABS*	00000000 adddf3.c
00000000 l    df *ABS*	00000000 divdf3.c
00000000 l    df *ABS*	00000000 eqdf2.c
00000000 l    df *ABS*	00000000 gedf2.c
00000000 l    df *ABS*	00000000 ledf2.c
00000000 l    df *ABS*	00000000 muldf3.c
00000000 l    df *ABS*	00000000 subdf3.c
00000000 l    df *ABS*	00000000 fixdfsi.c
00000000 l    df *ABS*	00000000 floatsidf.c
00000000 l    df *ABS*	00000000 floatunsidf.c
00000000 l    df *ABS*	00000000 libgcc2.c
00000000 l    df *ABS*	00000000 libgcc2.c
00000000 l    df *ABS*	00000000 alt_close.c
0080d5b8 l     F .text	0000003c alt_get_errno
00000000 l    df *ABS*	00000000 alt_dev.c
0080d6cc l     F .text	0000002c alt_dev_null_write
00000000 l    df *ABS*	00000000 alt_errno.c
00000000 l    df *ABS*	00000000 alt_fstat.c
0080d6f8 l     F .text	0000003c alt_get_errno
00000000 l    df *ABS*	00000000 alt_isatty.c
0080d7ec l     F .text	0000003c alt_get_errno
00000000 l    df *ABS*	00000000 alt_load.c
0080d8d4 l     F .text	00000068 alt_load_section
00000000 l    df *ABS*	00000000 alt_lseek.c
0080d9c0 l     F .text	0000003c alt_get_errno
00000000 l    df *ABS*	00000000 alt_main.c
00000000 l    df *ABS*	00000000 alt_malloc_lock.c
00000000 l    df *ABS*	00000000 alt_read.c
0080db9c l     F .text	0000003c alt_get_errno
00000000 l    df *ABS*	00000000 alt_release_fd.c
00000000 l    df *ABS*	00000000 alt_sbrk.c
008125a4 l     O .rwdata	00000004 heap_end
00000000 l    df *ABS*	00000000 alt_usleep.c
00000000 l    df *ABS*	00000000 alt_write.c
0080de40 l     F .text	0000003c alt_get_errno
00000000 l    df *ABS*	00000000 alt_sys_init.c
0080df7c l     F .text	00000034 alt_dev_reg
00811450 l     O .rwdata	00001060 jtag_uart
008124b0 l     O .rwdata	000000c4 uart
00000000 l    df *ABS*	00000000 altera_avalon_jtag_uart_fd.c
00000000 l    df *ABS*	00000000 altera_avalon_jtag_uart_init.c
0080e278 l     F .text	0000020c altera_avalon_jtag_uart_irq
0080e484 l     F .text	000000a0 altera_avalon_jtag_uart_timeout
00000000 l    df *ABS*	00000000 altera_avalon_jtag_uart_ioctl.c
00000000 l    df *ABS*	00000000 altera_avalon_jtag_uart_read.c
00000000 l    df *ABS*	00000000 altera_avalon_jtag_uart_write.c
00000000 l    df *ABS*	00000000 altera_avalon_uart_fd.c
00000000 l    df *ABS*	00000000 altera_avalon_uart_init.c
0080ec78 l     F .text	0000009c altera_avalon_uart_irq
0080ed14 l     F .text	000000e4 altera_avalon_uart_rxirq
0080edf8 l     F .text	00000148 altera_avalon_uart_txirq
00000000 l    df *ABS*	00000000 altera_avalon_uart_read.c
0080ef94 l     F .text	0000003c alt_get_errno
00000000 l    df *ABS*	00000000 altera_avalon_uart_write.c
0080f1ac l     F .text	0000003c alt_get_errno
00000000 l    df *ABS*	00000000 alt_alarm_start.c
00000000 l    df *ABS*	00000000 alt_busy_sleep.c
00000000 l    df *ABS*	00000000 alt_dcache_flush_all.c
00000000 l    df *ABS*	00000000 alt_dev_llist_insert.c
0080f638 l     F .text	0000003c alt_get_errno
00000000 l    df *ABS*	00000000 alt_do_ctors.c
00000000 l    df *ABS*	00000000 alt_do_dtors.c
00000000 l    df *ABS*	00000000 alt_icache_flush_all.c
00000000 l    df *ABS*	00000000 alt_iic.c
00000000 l    df *ABS*	00000000 alt_iic_isr_register.c
00000000 l    df *ABS*	00000000 alt_io_redirect.c
0080fa98 l     F .text	000000e4 alt_open_fd
00000000 l    df *ABS*	00000000 alt_irq_vars.c
00000000 l    df *ABS*	00000000 alt_open.c
0080fbf8 l     F .text	0000003c alt_get_errno
0080fc34 l     F .text	000000ec alt_file_locked
00000000 l    df *ABS*	00000000 alt_tick.c
00000000 l    df *ABS*	00000000 altera_nios2_gen2_irq.c
00000000 l    df *ABS*	00000000 alt_find_dev.c
00000000 l    df *ABS*	00000000 alt_find_file.c
00000000 l    df *ABS*	00000000 alt_get_fd.c
00000000 l    df *ABS*	00000000 atexit.c
00000000 l    df *ABS*	00000000 exit.c
00000000 l    df *ABS*	00000000 memcmp.c
00000000 l    df *ABS*	00000000 __atexit.c
00000000 l    df *ABS*	00000000 __call_atexit.c
00000000 l    df *ABS*	00000000 alt_exit.c
00814198 g     O .bss	00000004 alt_instruction_exception_handler
00807388 g     F .text	00000074 _mprec_log10
00807474 g     F .text	0000008c __any_on
00809b24 g     F .text	00000054 _isatty_r
00810794 g     O .rodata	00000028 __mprec_tinytens
0080dad8 g     F .text	0000007c alt_main
0080046c g     F .text	000000c0 _puts_r
008141c4 g     O .bss	00000100 alt_irq
00809b78 g     F .text	00000060 _lseek_r
008125b4 g       *ABS*	00000000 __flash_rwdata_start
0080bf90 g     F .text	00000088 .hidden __eqdf2
008142c4 g       *ABS*	00000000 __alt_heap_start
00800430 g     F .text	0000003c printf
00809d90 g     F .text	0000009c _wcrtomb_r
00807df4 g     F .text	0000005c __sseek
00804a20 g     F .text	00000010 __sinit
00809c38 g     F .text	00000140 __swbuf_r
008054f4 g     F .text	0000007c _setlocale_r
00804878 g     F .text	00000078 __sfmoreglue
0080db78 g     F .text	00000024 __malloc_unlock
008061c4 g     F .text	0000015c memmove
00804a08 g     F .text	00000018 _cleanup
00806448 g     F .text	000000a8 _Balloc
0080c018 g     F .text	000000dc .hidden __gtdf2
00810020 g     F .text	00000024 altera_nios2_gen2_irq_init
00800000 g     F .entry	0000000c __reset
00800020 g       *ABS*	00000000 __flash_exceptions_start
00809ac8 g     F .text	0000005c _fstat_r
0081417c g     O .bss	00000004 errno
008005b4 g     F .text	00000014 __srget
00807d70 g     F .text	00000008 __seofread
00814184 g     O .bss	00000004 alt_argv
0081a574 g       *ABS*	00000000 _gp
0080de10 g     F .text	00000030 usleep
008112d0 g     O .rwdata	00000180 alt_fd_list
00800308 g     F .text	00000070 _getc_r
00800378 g     F .text	00000088 getc
00810044 g     F .text	00000090 alt_find_dev
0080607c g     F .text	00000148 memcpy
008046c8 g     F .text	0000000c _cleanup_r
0080d3d0 g     F .text	000000dc .hidden __floatsidf
0080fb7c g     F .text	0000007c alt_io_redirect
0080c0f4 g     F .text	000000f4 .hidden __ltdf2
008106d0 g       *ABS*	00000000 __DTOR_END__
0080052c g     F .text	00000014 puts
008102a0 g     F .text	0000009c alt_exception_cause_generated_bad_addr
00807c54 g     F .text	00000074 __fpclassifyd
008072e4 g     F .text	000000a4 __ratio
00809554 g     F .text	0000001c __vfiprintf_internal
0080e67c g     F .text	0000021c altera_avalon_jtag_uart_read
00800400 g     F .text	00000030 _printf_r
0080ac30 g     F .text	00000064 .hidden __udivsi3
0080d828 g     F .text	000000ac isatty
008107e4 g     O .rodata	000000c8 __mprec_tens
00805570 g     F .text	0000000c __locale_charset
00814178 g     O .bss	00000004 __malloc_top_pad
0081257c g     O .rwdata	00000004 __mb_cur_max
008055a0 g     F .text	0000000c _localeconv_r
0080687c g     F .text	0000003c __i2b
00804ea4 g     F .text	000004c8 __sfvwrite_r
00807cc8 g     F .text	00000054 _sbrk_r
00809bd8 g     F .text	00000060 _read_r
0081259c g     O .rwdata	00000004 alt_max_fd
008097bc g     F .text	000000f0 _fclose_r
00804690 g     F .text	00000030 fflush
00814174 g     O .bss	00000004 __malloc_max_sbrked_mem
0080ad14 g     F .text	000008ac .hidden __adddf3
0080708c g     F .text	0000010c __b2d
0080a574 g     F .text	000005c4 .hidden __umoddi3
0080d9fc g     F .text	000000dc lseek
00812574 g     O .rwdata	00000004 _global_impure_ptr
00807500 g     F .text	00000564 _realloc_r
008142c4 g       *ABS*	00000000 __bss_end
0080f9a8 g     F .text	000000f0 alt_iic_isr_register
0080ff18 g     F .text	00000108 alt_tick
00809f78 g     F .text	000005fc .hidden __udivdi3
00809a24 g     F .text	00000024 _fputwc_r
008107bc g     O .rodata	00000028 __mprec_bigtens
00806660 g     F .text	00000104 __s2b
0080d4ac g     F .text	000000a8 .hidden __floatunsidf
00806dcc g     F .text	00000060 __mcmp
0080ebcc g     F .text	000000ac altera_avalon_uart_init
00804a40 g     F .text	00000018 __fp_lock_all
0080f95c g     F .text	0000004c alt_ic_irq_enabled
0080fe7c g     F .text	0000009c alt_alarm_stop
0081418c g     O .bss	00000004 alt_irq_active
008000fc g     F .exceptions	000000d4 alt_irq_handler
008112a8 g     O .rwdata	00000028 alt_dev_null
0080f618 g     F .text	00000020 alt_dcache_flush_all
00806764 g     F .text	00000068 __hi0bits
0080d350 g     F .text	00000080 .hidden __fixdfsi
008125b4 g       *ABS*	00000000 __ram_rwdata_end
00812594 g     O .rwdata	00000008 alt_dev_list
0080de7c g     F .text	00000100 write
00810a04 g       *ABS*	00000000 __ram_rodata_end
0080d734 g     F .text	000000b8 fstat
0080c0f4 g     F .text	000000f4 .hidden __ledf2
00806b44 g     F .text	00000140 __pow5mult
00808048 g     F .text	0000150c ___vfiprintf_internal_r
0081416c g     O .bss	00000004 __nlocale_changed
0080ac94 g     F .text	00000058 .hidden __umodsi3
008142c4 g       *ABS*	00000000 end
0080f1e8 g     F .text	000001ac altera_avalon_uart_write
0080e1b8 g     F .text	000000c0 altera_avalon_jtag_uart_init
008001d0 g     F .exceptions	00000060 alt_instruction_exception_entry
008106d0 g       *ABS*	00000000 __CTOR_LIST__
01000000 g       *ABS*	00000000 __alt_stack_pointer
0080eb1c g     F .text	00000060 altera_avalon_uart_write_fd
0080d554 g     F .text	00000064 .hidden __clzsi2
0080eb7c g     F .text	00000050 altera_avalon_uart_close_fd
0080e898 g     F .text	00000224 altera_avalon_jtag_uart_write
00804a30 g     F .text	00000004 __sfp_lock_acquire
00805f98 g     F .text	000000e4 memchr
00800660 g     F .text	000022dc ___vfprintf_internal_r
00804b94 g     F .text	00000310 _free_r
0080557c g     F .text	00000010 __locale_mb_cur_max
0081051c g     F .text	00000180 __call_exitprocs
00800540 g     F .text	00000074 __srget_r
00814168 g     O .bss	00000004 __mlocale_changed
00812580 g     O .rwdata	00000004 __malloc_sbrk_base
00800230 g     F .text	0000003c _start
00814190 g     O .bss	00000004 _alt_tick_rate
00806c84 g     F .text	00000148 __lshift
00814194 g     O .bss	00000004 _alt_nticks
0080dbd8 g     F .text	00000104 read
0080dfe8 g     F .text	0000006c alt_sys_init
00810404 g     F .text	00000118 __register_exitproc
008068b8 g     F .text	0000028c __multiply
0080e524 g     F .text	00000068 altera_avalon_jtag_uart_close
0080acec g     F .text	00000028 .hidden __mulsi3
00810a04 g       *ABS*	00000000 __ram_rwdata_start
008106d0 g       *ABS*	00000000 __ram_rodata_start
0081419c g     O .bss	00000028 __malloc_current_mallinfo
00807198 g     F .text	0000014c __d2b
0080e054 g     F .text	00000060 altera_avalon_jtag_uart_read_fd
008101dc g     F .text	000000c4 alt_get_fd
0080f4c0 g     F .text	00000158 alt_busy_sleep
0080968c g     F .text	00000054 _close_r
00810388 g     F .text	0000007c memcmp
0080e114 g     F .text	00000050 altera_avalon_jtag_uart_close_fd
008142c4 g       *ABS*	00000000 __alt_stack_base
0080e164 g     F .text	00000054 altera_avalon_jtag_uart_ioctl_fd
00802a14 g     F .text	00000154 __swsetup_r
0080b5c0 g     F .text	000009d0 .hidden __divdf3
008048f0 g     F .text	00000118 __sfp
008073fc g     F .text	00000078 __copybits
00810ea0 g     O .rwdata	00000408 __malloc_av_
00804a3c g     F .text	00000004 __sinit_lock_release
0080c1e8 g     F .text	0000086c .hidden __muldf3
00807d1c g     F .text	00000054 __sread
008100d4 g     F .text	00000108 alt_find_file
0080f674 g     F .text	000000a4 alt_dev_llist_insert
0080db54 g     F .text	00000024 __malloc_lock
0080dd60 g     F .text	000000b0 sbrk
00804634 g     F .text	0000005c _fflush_r
008096e0 g     F .text	000000dc _calloc_r
00814164 g       *ABS*	00000000 __bss_start
00806320 g     F .text	00000128 memset
0080026c g     F .text	0000009c main
00814188 g     O .bss	00000004 alt_envp
00814170 g     O .bss	00000004 __malloc_max_total_mem
0080e0b4 g     F .text	00000060 altera_avalon_jtag_uart_write_fd
00809d78 g     F .text	00000018 __swbuf
00807e50 g     F .text	00000008 __sclose
01000000 g       *ABS*	00000000 __alt_heap_limit
008098ac g     F .text	00000014 fclose
00802d90 g     F .text	00001688 _dtoa_r
0080578c g     F .text	0000080c _malloc_r
00809eec g     F .text	00000030 __ascii_wctomb
008125a0 g     O .rwdata	00000004 alt_errno
0080536c g     F .text	000000c4 _fwalk
0080ab38 g     F .text	00000084 .hidden __divsi3
00804a70 g     F .text	00000124 _malloc_trim_r
008106d0 g       *ABS*	00000000 __CTOR_END__
00807e58 g     F .text	000000dc strcmp
008106d0 g       *ABS*	00000000 __flash_rodata_start
008106d0 g       *ABS*	00000000 __DTOR_LIST__
0080bf90 g     F .text	00000088 .hidden __nedf2
0080dfb0 g     F .text	00000038 alt_irq_init
0080dcdc g     F .text	00000084 alt_release_fd
008108cc g     O .rodata	00000100 .hidden __clz_tab
00814164 g     O .bss	00000004 _PathLocale
0081033c g     F .text	00000014 atexit
0080962c g     F .text	00000060 _write_r
008055ac g     F .text	00000018 setlocale
00812578 g     O .rwdata	00000004 _impure_ptr
00814180 g     O .bss	00000004 alt_argc
00804418 g     F .text	0000021c __sflush_r
0080f778 g     F .text	00000060 _do_dtors
00805598 g     F .text	00000008 __locale_cjk_lang
00807a80 g     F .text	000001d4 __srefill_r
00800020 g       .exceptions	00000000 alt_irq_entry
00807028 g     F .text	00000064 __ulp
00804a58 g     F .text	00000018 __fp_unlock_all
0081258c g     O .rwdata	00000008 alt_fs_list
00800020 g       *ABS*	00000000 __ram_exceptions_start
008055c4 g     F .text	0000000c localeconv
01020000 g       *ABS*	00000000 __alt_mem_onchip_memory2
0080f7f8 g     F .text	00000050 alt_ic_isr_register
008125b4 g       *ABS*	00000000 _edata
0080eabc g     F .text	00000060 altera_avalon_uart_read_fd
008142c4 g       *ABS*	00000000 _end
008098c0 g     F .text	00000164 __fputwc
00800230 g       *ABS*	00000000 __ram_exceptions_end
0080e58c g     F .text	000000f0 altera_avalon_jtag_uart_ioctl
0080f8d0 g     F .text	0000008c alt_ic_irq_disable
00807d78 g     F .text	0000007c __swrite
00812584 g     O .rwdata	00000004 __malloc_trim_threshold
0080558c g     F .text	0000000c __locale_msgcharset
00810350 g     F .text	00000038 exit
00805430 g     F .text	000000c4 _fwalk_reent
00806e2c g     F .text	000001fc __mdiff
0080abbc g     F .text	00000074 .hidden __modsi3
01000000 g       *ABS*	00000000 __alt_data_end
00800020 g     F .exceptions	00000000 alt_exception
00804a34 g     F .text	00000004 __sfp_lock_release
00800000 g       *ABS*	00000000 __alt_mem_sdram
0080ef40 g     F .text	00000054 altera_avalon_uart_close
0081069c g     F .text	00000034 _exit
0080f394 g     F .text	0000012c alt_alarm_start
008055d0 g     F .text	000001bc __smakebuf_r
008005c8 g     F .text	00000098 strlen
0080fd20 g     F .text	0000015c open
0080c018 g     F .text	000000dc .hidden __gedf2
00812588 g     O .rwdata	00000004 __wctomb
00808030 g     F .text	00000018 __sprint_r
0080f7d8 g     F .text	00000020 alt_icache_flush_all
008125a8 g     O .rwdata	00000004 alt_priority_mask
0080f848 g     F .text	00000088 alt_ic_irq_enable
0080293c g     F .text	0000001c __vfprintf_internal
0080efd0 g     F .text	000001dc altera_avalon_uart_read
00809f1c g     F .text	0000005c _wctomb_r
0080ca54 g     F .text	000008fc .hidden __subdf3
008067cc g     F .text	000000b0 __lo0bits
008125ac g     O .rwdata	00000008 alt_alarm_list
0080f718 g     F .text	00000060 _do_ctors
00809e2c g     F .text	000000c0 wcrtomb
0080d5f4 g     F .text	000000d8 close
0080d93c g     F .text	00000084 alt_load
00809a48 g     F .text	00000080 fputwc
00804a38 g     F .text	00000004 __sinit_lock_acquire
00806518 g     F .text	00000148 __multadd
008064f0 g     F .text	00000028 _Bfree



Disassembly of section .entry:

00800000 <__reset>:
 * Jump to the _start entry point in the .text section if reset code
 * is allowed or if optimizing for RTL simulation.
 */
#if defined(ALT_ALLOW_CODE_AT_RESET) || defined(ALT_SIM_OPTIMIZE)
    /* Jump to the _start entry point in the .text section. */
    movhi r1, %hi(_start)
  800000:	00402034 	movhi	at,128
    ori r1, r1, %lo(_start)
  800004:	08408c14 	ori	at,at,560
    jmp r1
  800008:	0800683a 	jmp	at
	...

Disassembly of section .exceptions:

00800020 <alt_exception>:

#else /* ALT_EXCEPTION_STACK disabled */
        /* 
         * Reserve space on normal stack for registers about to be pushed.
         */
        addi  sp, sp, -76
  800020:	deffed04 	addi	sp,sp,-76
         * documentation for details).
         *
         * Leave a gap in the stack frame at 4(sp) for the muldiv handler to
         * store zero into.
         */
        stw   ra,  0(sp)
  800024:	dfc00015 	stw	ra,0(sp)
        stw   r1,   8(sp)
  800028:	d8400215 	stw	at,8(sp)
        stw   r2,  12(sp)
  80002c:	d8800315 	stw	r2,12(sp)
        stw   r3,  16(sp)
  800030:	d8c00415 	stw	r3,16(sp)
        stw   r4,  20(sp)
  800034:	d9000515 	stw	r4,20(sp)
        stw   r5,  24(sp)
  800038:	d9400615 	stw	r5,24(sp)
        stw   r6,  28(sp)
  80003c:	d9800715 	stw	r6,28(sp)
        stw   r7,  32(sp)
  800040:	d9c00815 	stw	r7,32(sp)
        rdctl r5, estatus   /* Read early to avoid usage stall */
  800044:	000b307a 	rdctl	r5,estatus
        stw   r8,  36(sp)
  800048:	da000915 	stw	r8,36(sp)
        stw   r9,  40(sp)
  80004c:	da400a15 	stw	r9,40(sp)
        stw   r10, 44(sp)
  800050:	da800b15 	stw	r10,44(sp)
        stw   r11, 48(sp)
  800054:	dac00c15 	stw	r11,48(sp)
        stw   r12, 52(sp)
  800058:	db000d15 	stw	r12,52(sp)
        stw   r13, 56(sp)
  80005c:	db400e15 	stw	r13,56(sp)
        stw   r14, 60(sp)
  800060:	db800f15 	stw	r14,60(sp)
        stw   r15, 64(sp)
  800064:	dbc01015 	stw	r15,64(sp)
        /*
         * ea-4 contains the address of the instruction being executed
         * when the exception occured. For interrupt exceptions, we will
         * will be re-issue the isntruction. Store it in 72(sp)
         */
        stw   r5,  68(sp)  /* estatus */
  800068:	d9401115 	stw	r5,68(sp)
        addi  r15, ea, -4  /* instruction that caused exception */
  80006c:	ebffff04 	addi	r15,ea,-4
        stw   r15,  72(sp)
  800070:	dbc01215 	stw	r15,72(sp)
#else
        /*
         * Test to see if the exception was a software exception or caused 
         * by an external interrupt, and vector accordingly.
         */
        rdctl r4, ipending
  800074:	0009313a 	rdctl	r4,ipending
        andi  r2, r5, 1
  800078:	2880004c 	andi	r2,r5,1
        beq   r2, zero, .Lnot_irq
  80007c:	10000326 	beq	r2,zero,80008c <alt_exception+0x6c>
        beq   r4, zero, .Lnot_irq
  800080:	20000226 	beq	r4,zero,80008c <alt_exception+0x6c>
        /*
         * Now that all necessary registers have been preserved, call 
         * alt_irq_handler() to process the interrupts.
         */

        call alt_irq_handler
  800084:	08000fc0 	call	8000fc <alt_irq_handler>

        .section .exceptions.irqreturn, "xa"

        br    .Lexception_exit
  800088:	00000706 	br	8000a8 <alt_exception+0x88>
         * upon completion, so we write ea (address of instruction *after*
         * the one where the exception occured) into 72(sp). The actual
         * instruction that caused the exception is written in r2, which these
         * handlers will utilize.
         */
        stw ea, 72(sp) /* EA is PC+4 so will skip over instruction causing exception */
  80008c:	df401215 	stw	ea,72(sp)
.Lunknown_16bit:
        addi.n r4, r4, 2 /* Need PC+2 to skip over instruction causing exception */
        stw r4, 72(sp)

#else /* CDX is not Enabled and all instructions are 32bits */
        ldw r2, -4(ea) /* Instruction value that caused exception */
  800090:	e8bfff17 	ldw	r2,-4(ea)
         * debugger is present) or go into an infinite loop since the
         * handling behavior is undefined; in that case we will not return here.
         */

        /* Load exception-causing address as first argument (r4) */
        addi   r4, ea, -4
  800094:	e93fff04 	addi	r4,ea,-4

        /* Call the instruction-exception entry */
        call   alt_instruction_exception_entry
  800098:	08001d00 	call	8001d0 <alt_instruction_exception_entry>
         * instruction
         *
         * Return code was 0: Skip. The instruction after the exception is
         * already stored in 72(sp).
         */
        bne   r2, r0, .Lexception_exit
  80009c:	1000021e 	bne	r2,zero,8000a8 <alt_exception+0x88>

        /*
         * Otherwise, modify 72(sp) to re-issue the instruction that caused the
         * exception.
         */
        addi  r15, ea, -4  /* instruction that caused exception */
  8000a0:	ebffff04 	addi	r15,ea,-4
        stw   r15,  72(sp)
  8000a4:	dbc01215 	stw	r15,72(sp)
        /* 
         * Restore the saved registers, so that all general purpose registers 
         * have been restored to their state at the time the interrupt occured.
         */

        ldw   r5,  68(sp)
  8000a8:	d9401117 	ldw	r5,68(sp)
        ldw   ea,  72(sp)  /* This becomes the PC once eret is executed */
  8000ac:	df401217 	ldw	ea,72(sp)
        ldw   ra,   0(sp)
  8000b0:	dfc00017 	ldw	ra,0(sp)

        wrctl estatus, r5
  8000b4:	2801707a 	wrctl	estatus,r5

        ldw   r1,   8(sp)
  8000b8:	d8400217 	ldw	at,8(sp)
        ldw   r2,  12(sp)
  8000bc:	d8800317 	ldw	r2,12(sp)
        ldw   r3,  16(sp)
  8000c0:	d8c00417 	ldw	r3,16(sp)
        ldw   r4,  20(sp)
  8000c4:	d9000517 	ldw	r4,20(sp)
        ldw   r5,  24(sp)
  8000c8:	d9400617 	ldw	r5,24(sp)
        ldw   r6,  28(sp)
  8000cc:	d9800717 	ldw	r6,28(sp)
        ldw   r7,  32(sp)
  8000d0:	d9c00817 	ldw	r7,32(sp)

#if defined(ALT_EXCEPTION_STACK) && defined(ALT_STACK_CHECK)
        ldw   et, %gprel(alt_exception_old_stack_limit)(gp)
#endif

        ldw   r8,  36(sp)
  8000d4:	da000917 	ldw	r8,36(sp)
        ldw   r9,  40(sp)
  8000d8:	da400a17 	ldw	r9,40(sp)
        ldw   r10, 44(sp)
  8000dc:	da800b17 	ldw	r10,44(sp)
        ldw   r11, 48(sp)
  8000e0:	dac00c17 	ldw	r11,48(sp)
        ldw   r12, 52(sp)
  8000e4:	db000d17 	ldw	r12,52(sp)
        ldw   r13, 56(sp)
  8000e8:	db400e17 	ldw	r13,56(sp)
        ldw   r14, 60(sp)
  8000ec:	db800f17 	ldw	r14,60(sp)
        ldw   r15, 64(sp)
  8000f0:	dbc01017 	ldw	r15,64(sp)
        stw   et, %gprel(alt_stack_limit_value)(gp)
        stw   zero, %gprel(alt_exception_old_stack_limit)(gp)
#endif /* ALT_STACK_CHECK */
        ldw   sp,  76(sp)
#else /* ALT_EXCEPTION_STACK disabled */
        addi  sp, sp, 76
  8000f4:	dec01304 	addi	sp,sp,76

        /*
         * Return to the interrupted instruction.
         */

        eret
  8000f8:	ef80083a 	eret

008000fc <alt_irq_handler>:
 * instruction is present if the macro ALT_CI_INTERRUPT_VECTOR defined.
 */

void alt_irq_handler (void) __attribute__ ((section (".exceptions")));
void alt_irq_handler (void)
{
  8000fc:	defff904 	addi	sp,sp,-28
  800100:	dfc00615 	stw	ra,24(sp)
  800104:	df000515 	stw	fp,20(sp)
  800108:	df000504 	addi	fp,sp,20
  
  /*
   * Notify the operating system that we are at interrupt level.
   */ 
  
  ALT_OS_INT_ENTER();
  80010c:	0001883a 	nop
#ifndef NIOS2_EIC_PRESENT
static ALT_INLINE alt_u32 ALT_ALWAYS_INLINE alt_irq_pending (void)
{
  alt_u32 active;

  NIOS2_READ_IPENDING (active);
  800110:	0005313a 	rdctl	r2,ipending
  800114:	e0bffe15 	stw	r2,-8(fp)

  return active;
  800118:	e0bffe17 	ldw	r2,-8(fp)
   * Consider the case where the high priority interupt is asserted during
   * the interrupt entry sequence for a lower priority interrupt to see why
   * this is the case.
   */

  active = alt_irq_pending ();
  80011c:	e0bffb15 	stw	r2,-20(fp)

  do
  {
    i = 0;
  800120:	e03ffd15 	stw	zero,-12(fp)
    mask = 1;
  800124:	00800044 	movi	r2,1
  800128:	e0bffc15 	stw	r2,-16(fp)
     * called to clear the interrupt condition.
     */

    do
    {
      if (active & mask)
  80012c:	e0fffb17 	ldw	r3,-20(fp)
  800130:	e0bffc17 	ldw	r2,-16(fp)
  800134:	1884703a 	and	r2,r3,r2
  800138:	10001426 	beq	r2,zero,80018c <alt_irq_handler+0x90>
      { 
#ifdef ALT_ENHANCED_INTERRUPT_API_PRESENT
        alt_irq[i].handler(alt_irq[i].context); 
  80013c:	00802074 	movhi	r2,129
  800140:	10907104 	addi	r2,r2,16836
  800144:	e0fffd17 	ldw	r3,-12(fp)
  800148:	180690fa 	slli	r3,r3,3
  80014c:	10c5883a 	add	r2,r2,r3
  800150:	10c00017 	ldw	r3,0(r2)
  800154:	00802074 	movhi	r2,129
  800158:	10907104 	addi	r2,r2,16836
  80015c:	e13ffd17 	ldw	r4,-12(fp)
  800160:	200890fa 	slli	r4,r4,3
  800164:	1105883a 	add	r2,r2,r4
  800168:	10800104 	addi	r2,r2,4
  80016c:	10800017 	ldw	r2,0(r2)
  800170:	1009883a 	mov	r4,r2
  800174:	183ee83a 	callr	r3
#else
        alt_irq[i].handler(alt_irq[i].context, i); 
#endif
        break;
  800178:	0001883a 	nop
#ifndef NIOS2_EIC_PRESENT
static ALT_INLINE alt_u32 ALT_ALWAYS_INLINE alt_irq_pending (void)
{
  alt_u32 active;

  NIOS2_READ_IPENDING (active);
  80017c:	0005313a 	rdctl	r2,ipending
  800180:	e0bfff15 	stw	r2,-4(fp)

  return active;
  800184:	e0bfff17 	ldw	r2,-4(fp)
  800188:	00000706 	br	8001a8 <alt_irq_handler+0xac>
      }
      mask <<= 1;
  80018c:	e0bffc17 	ldw	r2,-16(fp)
  800190:	1085883a 	add	r2,r2,r2
  800194:	e0bffc15 	stw	r2,-16(fp)
      i++;
  800198:	e0bffd17 	ldw	r2,-12(fp)
  80019c:	10800044 	addi	r2,r2,1
  8001a0:	e0bffd15 	stw	r2,-12(fp)

    } while (1);
  8001a4:	003fe106 	br	80012c <__alt_mem_onchip_memory2+0xff7e012c>

    active = alt_irq_pending ();
  8001a8:	e0bffb15 	stw	r2,-20(fp)
    
  } while (active);
  8001ac:	e0bffb17 	ldw	r2,-20(fp)
  8001b0:	103fdb1e 	bne	r2,zero,800120 <__alt_mem_onchip_memory2+0xff7e0120>

  /*
   * Notify the operating system that interrupt processing is complete.
   */ 

  ALT_OS_INT_EXIT();
  8001b4:	0001883a 	nop
}
  8001b8:	0001883a 	nop
  8001bc:	e037883a 	mov	sp,fp
  8001c0:	dfc00117 	ldw	ra,4(sp)
  8001c4:	df000017 	ldw	fp,0(sp)
  8001c8:	dec00204 	addi	sp,sp,8
  8001cc:	f800283a 	ret

008001d0 <alt_instruction_exception_entry>:
 * that handler if it has been registered. Absent a handler, it will
 * break break or hang as discussed below.
 */
int 
alt_instruction_exception_entry (alt_u32 exception_pc)
{
  8001d0:	defffb04 	addi	sp,sp,-20
  8001d4:	dfc00415 	stw	ra,16(sp)
  8001d8:	df000315 	stw	fp,12(sp)
  8001dc:	df000304 	addi	fp,sp,12
  8001e0:	e13fff15 	stw	r4,-4(fp)
  cause = ( (cause & NIOS2_EXCEPTION_REG_CAUSE_MASK) >>
              NIOS2_EXCEPTION_REG_CAUSE_OFST );

  NIOS2_READ_BADADDR(badaddr);
#else
  cause = NIOS2_EXCEPTION_CAUSE_NOT_PRESENT;
  8001e4:	00bfffc4 	movi	r2,-1
  8001e8:	e0bffd15 	stw	r2,-12(fp)
  badaddr = 0;
  8001ec:	e03ffe15 	stw	zero,-8(fp)
#endif /* NIOS2_HAS_EXTRA_EXCEPTION_INFO */

  if(alt_instruction_exception_handler) {
  8001f0:	d0a70917 	ldw	r2,-25564(gp)
  8001f4:	10000726 	beq	r2,zero,800214 <alt_instruction_exception_entry+0x44>
     * Call handler. Its return value indicates whether the exception-causing
     * instruction should be re-issued. The code that called us,
     * alt_eceptions_entry.S, will look at this value and adjust the ea
     * register as necessary
     */
    return alt_instruction_exception_handler(cause, exception_pc, badaddr);
  8001f8:	d0a70917 	ldw	r2,-25564(gp)
  8001fc:	e0fffd17 	ldw	r3,-12(fp)
  800200:	e1bffe17 	ldw	r6,-8(fp)
  800204:	e17fff17 	ldw	r5,-4(fp)
  800208:	1809883a 	mov	r4,r3
  80020c:	103ee83a 	callr	r2
  800210:	00000206 	br	80021c <alt_instruction_exception_entry+0x4c>
   *    (a peripheral which negates its interrupt output before its
   *    interrupt handler has been executed will cause spurious interrupts)
   */
  else {
#ifdef NIOS2_HAS_DEBUG_STUB
    NIOS2_BREAK();
  800214:	003da03a 	break	0
      ;
#endif /* NIOS2_HAS_DEBUG_STUB */
  }

  /* We should not get here. Remove compiler warning. */
  return NIOS2_EXCEPTION_RETURN_REISSUE_INST;
  800218:	0005883a 	mov	r2,zero
}
  80021c:	e037883a 	mov	sp,fp
  800220:	dfc00117 	ldw	ra,4(sp)
  800224:	df000017 	ldw	fp,0(sp)
  800228:	dec00204 	addi	sp,sp,8
  80022c:	f800283a 	ret

Disassembly of section .text:

00800230 <_start>:

    /*
     * Now that the caches are initialized, set up the stack pointer and global pointer.
     * The values provided by the linker are assumed to be correctly aligned.
     */
    movhi sp, %hi(__alt_stack_pointer)
  800230:	06c04034 	movhi	sp,256
    ori sp, sp, %lo(__alt_stack_pointer)
  800234:	dec00014 	ori	sp,sp,0
    movhi gp, %hi(_gp)
  800238:	06802074 	movhi	gp,129
    ori gp, gp, %lo(_gp)
  80023c:	d6a95d14 	ori	gp,gp,42356
 */
#ifndef ALT_SIM_OPTIMIZE
    /* Log that the BSS is about to be cleared. */
    ALT_LOG_PUTS(alt_log_msg_bss)

    movhi r2, %hi(__bss_start)
  800240:	00802074 	movhi	r2,129
    ori r2, r2, %lo(__bss_start)
  800244:	10905914 	ori	r2,r2,16740

    movhi r3, %hi(__bss_end)
  800248:	00c02074 	movhi	r3,129
    ori r3, r3, %lo(__bss_end)
  80024c:	18d0b114 	ori	r3,r3,17092

    beq r2, r3, 1f
  800250:	10c00326 	beq	r2,r3,800260 <_start+0x30>

0:
    stw zero, (r2)
  800254:	10000015 	stw	zero,0(r2)
    addi r2, r2, 4
  800258:	10800104 	addi	r2,r2,4
    bltu r2, r3, 0b
  80025c:	10fffd36 	bltu	r2,r3,800254 <__alt_mem_onchip_memory2+0xff7e0254>
     * section aren't defined until alt_load() has been called).
     */
    mov   et, zero
#endif

    call alt_load
  800260:	080d93c0 	call	80d93c <alt_load>

    /* Log that alt_main is about to be called. */
    ALT_LOG_PUTS(alt_log_msg_alt_main)

    /* Call the C entry point. It should never return. */
    call alt_main
  800264:	080dad80 	call	80dad8 <alt_main>

00800268 <alt_after_alt_main>:

    /* Wait in infinite loop in case alt_main does return. */
alt_after_alt_main:
    br alt_after_alt_main
  800268:	003fff06 	br	800268 <__alt_mem_onchip_memory2+0xff7e0268>

0080026c <main>:
#include "system.h"
#include "io.h"

#define SWITCHES_BASE    SWITCH_BASE
#define LEDS_BASE        LED_BASE
int main() {
  80026c:	defffd04 	addi	sp,sp,-12
  800270:	dfc00215 	stw	ra,8(sp)
  800274:	df000115 	stw	fp,4(sp)
  800278:	df000104 	addi	fp,sp,4
    char previous_switch_state = 0;
  80027c:	e03fff05 	stb	zero,-4(fp)
    char current_switch_state;
    char uart_char;

    printf("Hello from Nios II!\n");
  800280:	01002074 	movhi	r4,129
  800284:	2101b404 	addi	r4,r4,1744
  800288:	080052c0 	call	80052c <puts>

    while (1) {
        // Đọc trạng thái của các công tắc
        current_switch_state = IORD(SWITCHES_BASE, 0);
  80028c:	00804134 	movhi	r2,260
  800290:	10840c04 	addi	r2,r2,4144
  800294:	10800037 	ldwio	r2,0(r2)
  800298:	e0bfff45 	stb	r2,-3(fp)

        // Kiểm tra xem có sự thay đổi từ trạng thái trước đó không
        if (current_switch_state != previous_switch_state) {
  80029c:	e0ffff47 	ldb	r3,-3(fp)
  8002a0:	e0bfff07 	ldb	r2,-4(fp)
  8002a4:	18801426 	beq	r3,r2,8002f8 <main+0x8c>
            // Ghi trạng thái của công tắc lên thanh LED
            IOWR(LEDS_BASE, 0, current_switch_state);
  8002a8:	e0ffff47 	ldb	r3,-3(fp)
  8002ac:	00804134 	movhi	r2,260
  8002b0:	10840804 	addi	r2,r2,4128
  8002b4:	10c00035 	stwio	r3,0(r2)

            // Gửi dữ liệu qua UART
            printf("Switch state changed: %x\n", current_switch_state);
  8002b8:	e0bfff47 	ldb	r2,-3(fp)
  8002bc:	100b883a 	mov	r5,r2
  8002c0:	01002074 	movhi	r4,129
  8002c4:	2101b904 	addi	r4,r4,1764
  8002c8:	08004300 	call	800430 <printf>

            // Đọc một ký tự từ UART
            uart_char = getchar();
  8002cc:	d0a00117 	ldw	r2,-32764(gp)
  8002d0:	10800117 	ldw	r2,4(r2)
  8002d4:	1009883a 	mov	r4,r2
  8002d8:	08003780 	call	800378 <getc>
  8002dc:	e0bfff85 	stb	r2,-2(fp)

            // Hiển thị ký tự trên thanh LED
            IOWR(LEDS_BASE, 0, uart_char);
  8002e0:	e0ffff87 	ldb	r3,-2(fp)
  8002e4:	00804134 	movhi	r2,260
  8002e8:	10840804 	addi	r2,r2,4128
  8002ec:	10c00035 	stwio	r3,0(r2)

            // Cập nhật trạng thái trước đó
            previous_switch_state = current_switch_state;
  8002f0:	e0bfff43 	ldbu	r2,-3(fp)
  8002f4:	e0bfff05 	stb	r2,-4(fp)
        }

        // Ngủ một khoảng thời gian ngắn để tránh việc đọc liên tục
        usleep(100000);
  8002f8:	010000b4 	movhi	r4,2
  8002fc:	2121a804 	addi	r4,r4,-31072
  800300:	080de100 	call	80de10 <usleep>
    }
  800304:	003fe106 	br	80028c <__alt_mem_onchip_memory2+0xff7e028c>

00800308 <_getc_r>:
  800308:	defffd04 	addi	sp,sp,-12
  80030c:	dc000115 	stw	r16,4(sp)
  800310:	dfc00215 	stw	ra,8(sp)
  800314:	2021883a 	mov	r16,r4
  800318:	20000226 	beq	r4,zero,800324 <_getc_r+0x1c>
  80031c:	20800e17 	ldw	r2,56(r4)
  800320:	10000c26 	beq	r2,zero,800354 <_getc_r+0x4c>
  800324:	28800117 	ldw	r2,4(r5)
  800328:	10bfffc4 	addi	r2,r2,-1
  80032c:	28800115 	stw	r2,4(r5)
  800330:	10000c16 	blt	r2,zero,800364 <_getc_r+0x5c>
  800334:	28800017 	ldw	r2,0(r5)
  800338:	10c00044 	addi	r3,r2,1
  80033c:	28c00015 	stw	r3,0(r5)
  800340:	10800003 	ldbu	r2,0(r2)
  800344:	dfc00217 	ldw	ra,8(sp)
  800348:	dc000117 	ldw	r16,4(sp)
  80034c:	dec00304 	addi	sp,sp,12
  800350:	f800283a 	ret
  800354:	d9400015 	stw	r5,0(sp)
  800358:	0804a200 	call	804a20 <__sinit>
  80035c:	d9400017 	ldw	r5,0(sp)
  800360:	003ff006 	br	800324 <__alt_mem_onchip_memory2+0xff7e0324>
  800364:	8009883a 	mov	r4,r16
  800368:	dfc00217 	ldw	ra,8(sp)
  80036c:	dc000117 	ldw	r16,4(sp)
  800370:	dec00304 	addi	sp,sp,12
  800374:	08005401 	jmpi	800540 <__srget_r>

00800378 <getc>:
  800378:	00802074 	movhi	r2,129
  80037c:	defffd04 	addi	sp,sp,-12
  800380:	10895e04 	addi	r2,r2,9592
  800384:	dc400115 	stw	r17,4(sp)
  800388:	14400017 	ldw	r17,0(r2)
  80038c:	dc000015 	stw	r16,0(sp)
  800390:	dfc00215 	stw	ra,8(sp)
  800394:	2021883a 	mov	r16,r4
  800398:	88000226 	beq	r17,zero,8003a4 <getc+0x2c>
  80039c:	88800e17 	ldw	r2,56(r17)
  8003a0:	10000d26 	beq	r2,zero,8003d8 <getc+0x60>
  8003a4:	80800117 	ldw	r2,4(r16)
  8003a8:	10bfffc4 	addi	r2,r2,-1
  8003ac:	80800115 	stw	r2,4(r16)
  8003b0:	10000c16 	blt	r2,zero,8003e4 <getc+0x6c>
  8003b4:	80800017 	ldw	r2,0(r16)
  8003b8:	10c00044 	addi	r3,r2,1
  8003bc:	80c00015 	stw	r3,0(r16)
  8003c0:	10800003 	ldbu	r2,0(r2)
  8003c4:	dfc00217 	ldw	ra,8(sp)
  8003c8:	dc400117 	ldw	r17,4(sp)
  8003cc:	dc000017 	ldw	r16,0(sp)
  8003d0:	dec00304 	addi	sp,sp,12
  8003d4:	f800283a 	ret
  8003d8:	8809883a 	mov	r4,r17
  8003dc:	0804a200 	call	804a20 <__sinit>
  8003e0:	003ff006 	br	8003a4 <__alt_mem_onchip_memory2+0xff7e03a4>
  8003e4:	800b883a 	mov	r5,r16
  8003e8:	8809883a 	mov	r4,r17
  8003ec:	dfc00217 	ldw	ra,8(sp)
  8003f0:	dc400117 	ldw	r17,4(sp)
  8003f4:	dc000017 	ldw	r16,0(sp)
  8003f8:	dec00304 	addi	sp,sp,12
  8003fc:	08005401 	jmpi	800540 <__srget_r>

00800400 <_printf_r>:
  800400:	defffd04 	addi	sp,sp,-12
  800404:	2805883a 	mov	r2,r5
  800408:	dfc00015 	stw	ra,0(sp)
  80040c:	d9800115 	stw	r6,4(sp)
  800410:	d9c00215 	stw	r7,8(sp)
  800414:	21400217 	ldw	r5,8(r4)
  800418:	d9c00104 	addi	r7,sp,4
  80041c:	100d883a 	mov	r6,r2
  800420:	08006600 	call	800660 <___vfprintf_internal_r>
  800424:	dfc00017 	ldw	ra,0(sp)
  800428:	dec00304 	addi	sp,sp,12
  80042c:	f800283a 	ret

00800430 <printf>:
  800430:	defffc04 	addi	sp,sp,-16
  800434:	dfc00015 	stw	ra,0(sp)
  800438:	d9400115 	stw	r5,4(sp)
  80043c:	d9800215 	stw	r6,8(sp)
  800440:	d9c00315 	stw	r7,12(sp)
  800444:	00802074 	movhi	r2,129
  800448:	10895e04 	addi	r2,r2,9592
  80044c:	10800017 	ldw	r2,0(r2)
  800450:	200b883a 	mov	r5,r4
  800454:	d9800104 	addi	r6,sp,4
  800458:	11000217 	ldw	r4,8(r2)
  80045c:	080293c0 	call	80293c <__vfprintf_internal>
  800460:	dfc00017 	ldw	ra,0(sp)
  800464:	dec00404 	addi	sp,sp,16
  800468:	f800283a 	ret

0080046c <_puts_r>:
  80046c:	defff604 	addi	sp,sp,-40
  800470:	dc000715 	stw	r16,28(sp)
  800474:	2021883a 	mov	r16,r4
  800478:	2809883a 	mov	r4,r5
  80047c:	dc400815 	stw	r17,32(sp)
  800480:	dfc00915 	stw	ra,36(sp)
  800484:	2823883a 	mov	r17,r5
  800488:	08005c80 	call	8005c8 <strlen>
  80048c:	10c00044 	addi	r3,r2,1
  800490:	d8800115 	stw	r2,4(sp)
  800494:	00802074 	movhi	r2,129
  800498:	1081c104 	addi	r2,r2,1796
  80049c:	d8800215 	stw	r2,8(sp)
  8004a0:	00800044 	movi	r2,1
  8004a4:	d8800315 	stw	r2,12(sp)
  8004a8:	00800084 	movi	r2,2
  8004ac:	dc400015 	stw	r17,0(sp)
  8004b0:	d8c00615 	stw	r3,24(sp)
  8004b4:	dec00415 	stw	sp,16(sp)
  8004b8:	d8800515 	stw	r2,20(sp)
  8004bc:	80000226 	beq	r16,zero,8004c8 <_puts_r+0x5c>
  8004c0:	80800e17 	ldw	r2,56(r16)
  8004c4:	10001426 	beq	r2,zero,800518 <_puts_r+0xac>
  8004c8:	81400217 	ldw	r5,8(r16)
  8004cc:	2880030b 	ldhu	r2,12(r5)
  8004d0:	10c8000c 	andi	r3,r2,8192
  8004d4:	1800061e 	bne	r3,zero,8004f0 <_puts_r+0x84>
  8004d8:	29001917 	ldw	r4,100(r5)
  8004dc:	00f7ffc4 	movi	r3,-8193
  8004e0:	10880014 	ori	r2,r2,8192
  8004e4:	20c6703a 	and	r3,r4,r3
  8004e8:	2880030d 	sth	r2,12(r5)
  8004ec:	28c01915 	stw	r3,100(r5)
  8004f0:	d9800404 	addi	r6,sp,16
  8004f4:	8009883a 	mov	r4,r16
  8004f8:	0804ea40 	call	804ea4 <__sfvwrite_r>
  8004fc:	1000091e 	bne	r2,zero,800524 <_puts_r+0xb8>
  800500:	00800284 	movi	r2,10
  800504:	dfc00917 	ldw	ra,36(sp)
  800508:	dc400817 	ldw	r17,32(sp)
  80050c:	dc000717 	ldw	r16,28(sp)
  800510:	dec00a04 	addi	sp,sp,40
  800514:	f800283a 	ret
  800518:	8009883a 	mov	r4,r16
  80051c:	0804a200 	call	804a20 <__sinit>
  800520:	003fe906 	br	8004c8 <__alt_mem_onchip_memory2+0xff7e04c8>
  800524:	00bfffc4 	movi	r2,-1
  800528:	003ff606 	br	800504 <__alt_mem_onchip_memory2+0xff7e0504>

0080052c <puts>:
  80052c:	00802074 	movhi	r2,129
  800530:	10895e04 	addi	r2,r2,9592
  800534:	200b883a 	mov	r5,r4
  800538:	11000017 	ldw	r4,0(r2)
  80053c:	080046c1 	jmpi	80046c <_puts_r>

00800540 <__srget_r>:
  800540:	defffd04 	addi	sp,sp,-12
  800544:	dc400115 	stw	r17,4(sp)
  800548:	dc000015 	stw	r16,0(sp)
  80054c:	dfc00215 	stw	ra,8(sp)
  800550:	2023883a 	mov	r17,r4
  800554:	2821883a 	mov	r16,r5
  800558:	20000226 	beq	r4,zero,800564 <__srget_r+0x24>
  80055c:	20800e17 	ldw	r2,56(r4)
  800560:	10001026 	beq	r2,zero,8005a4 <__srget_r+0x64>
  800564:	800b883a 	mov	r5,r16
  800568:	8809883a 	mov	r4,r17
  80056c:	0807a800 	call	807a80 <__srefill_r>
  800570:	10000e1e 	bne	r2,zero,8005ac <__srget_r+0x6c>
  800574:	80c00017 	ldw	r3,0(r16)
  800578:	80800117 	ldw	r2,4(r16)
  80057c:	19000044 	addi	r4,r3,1
  800580:	10bfffc4 	addi	r2,r2,-1
  800584:	80800115 	stw	r2,4(r16)
  800588:	81000015 	stw	r4,0(r16)
  80058c:	18800003 	ldbu	r2,0(r3)
  800590:	dfc00217 	ldw	ra,8(sp)
  800594:	dc400117 	ldw	r17,4(sp)
  800598:	dc000017 	ldw	r16,0(sp)
  80059c:	dec00304 	addi	sp,sp,12
  8005a0:	f800283a 	ret
  8005a4:	0804a200 	call	804a20 <__sinit>
  8005a8:	003fee06 	br	800564 <__alt_mem_onchip_memory2+0xff7e0564>
  8005ac:	00bfffc4 	movi	r2,-1
  8005b0:	003ff706 	br	800590 <__alt_mem_onchip_memory2+0xff7e0590>

008005b4 <__srget>:
  8005b4:	00802074 	movhi	r2,129
  8005b8:	10895e04 	addi	r2,r2,9592
  8005bc:	200b883a 	mov	r5,r4
  8005c0:	11000017 	ldw	r4,0(r2)
  8005c4:	08005401 	jmpi	800540 <__srget_r>

008005c8 <strlen>:
  8005c8:	208000cc 	andi	r2,r4,3
  8005cc:	10002026 	beq	r2,zero,800650 <strlen+0x88>
  8005d0:	20800007 	ldb	r2,0(r4)
  8005d4:	10002026 	beq	r2,zero,800658 <strlen+0x90>
  8005d8:	2005883a 	mov	r2,r4
  8005dc:	00000206 	br	8005e8 <strlen+0x20>
  8005e0:	10c00007 	ldb	r3,0(r2)
  8005e4:	18001826 	beq	r3,zero,800648 <strlen+0x80>
  8005e8:	10800044 	addi	r2,r2,1
  8005ec:	10c000cc 	andi	r3,r2,3
  8005f0:	183ffb1e 	bne	r3,zero,8005e0 <__alt_mem_onchip_memory2+0xff7e05e0>
  8005f4:	10c00017 	ldw	r3,0(r2)
  8005f8:	01ffbff4 	movhi	r7,65279
  8005fc:	39ffbfc4 	addi	r7,r7,-257
  800600:	00ca303a 	nor	r5,zero,r3
  800604:	01a02074 	movhi	r6,32897
  800608:	19c7883a 	add	r3,r3,r7
  80060c:	31a02004 	addi	r6,r6,-32640
  800610:	1946703a 	and	r3,r3,r5
  800614:	1986703a 	and	r3,r3,r6
  800618:	1800091e 	bne	r3,zero,800640 <strlen+0x78>
  80061c:	10800104 	addi	r2,r2,4
  800620:	10c00017 	ldw	r3,0(r2)
  800624:	19cb883a 	add	r5,r3,r7
  800628:	00c6303a 	nor	r3,zero,r3
  80062c:	28c6703a 	and	r3,r5,r3
  800630:	1986703a 	and	r3,r3,r6
  800634:	183ff926 	beq	r3,zero,80061c <__alt_mem_onchip_memory2+0xff7e061c>
  800638:	00000106 	br	800640 <strlen+0x78>
  80063c:	10800044 	addi	r2,r2,1
  800640:	10c00007 	ldb	r3,0(r2)
  800644:	183ffd1e 	bne	r3,zero,80063c <__alt_mem_onchip_memory2+0xff7e063c>
  800648:	1105c83a 	sub	r2,r2,r4
  80064c:	f800283a 	ret
  800650:	2005883a 	mov	r2,r4
  800654:	003fe706 	br	8005f4 <__alt_mem_onchip_memory2+0xff7e05f4>
  800658:	0005883a 	mov	r2,zero
  80065c:	f800283a 	ret

00800660 <___vfprintf_internal_r>:
  800660:	deffb804 	addi	sp,sp,-288
  800664:	dfc04715 	stw	ra,284(sp)
  800668:	ddc04515 	stw	r23,276(sp)
  80066c:	dd404315 	stw	r21,268(sp)
  800670:	d9002d15 	stw	r4,180(sp)
  800674:	282f883a 	mov	r23,r5
  800678:	302b883a 	mov	r21,r6
  80067c:	d9c02e15 	stw	r7,184(sp)
  800680:	df004615 	stw	fp,280(sp)
  800684:	dd804415 	stw	r22,272(sp)
  800688:	dd004215 	stw	r20,264(sp)
  80068c:	dcc04115 	stw	r19,260(sp)
  800690:	dc804015 	stw	r18,256(sp)
  800694:	dc403f15 	stw	r17,252(sp)
  800698:	dc003e15 	stw	r16,248(sp)
  80069c:	08055a00 	call	8055a0 <_localeconv_r>
  8006a0:	10800017 	ldw	r2,0(r2)
  8006a4:	1009883a 	mov	r4,r2
  8006a8:	d8803415 	stw	r2,208(sp)
  8006ac:	08005c80 	call	8005c8 <strlen>
  8006b0:	d8803715 	stw	r2,220(sp)
  8006b4:	d8802d17 	ldw	r2,180(sp)
  8006b8:	10000226 	beq	r2,zero,8006c4 <___vfprintf_internal_r+0x64>
  8006bc:	10800e17 	ldw	r2,56(r2)
  8006c0:	1000fb26 	beq	r2,zero,800ab0 <___vfprintf_internal_r+0x450>
  8006c4:	b880030b 	ldhu	r2,12(r23)
  8006c8:	10c8000c 	andi	r3,r2,8192
  8006cc:	1800061e 	bne	r3,zero,8006e8 <___vfprintf_internal_r+0x88>
  8006d0:	b9001917 	ldw	r4,100(r23)
  8006d4:	00f7ffc4 	movi	r3,-8193
  8006d8:	10880014 	ori	r2,r2,8192
  8006dc:	20c6703a 	and	r3,r4,r3
  8006e0:	b880030d 	sth	r2,12(r23)
  8006e4:	b8c01915 	stw	r3,100(r23)
  8006e8:	10c0020c 	andi	r3,r2,8
  8006ec:	1800c326 	beq	r3,zero,8009fc <___vfprintf_internal_r+0x39c>
  8006f0:	b8c00417 	ldw	r3,16(r23)
  8006f4:	1800c126 	beq	r3,zero,8009fc <___vfprintf_internal_r+0x39c>
  8006f8:	1080068c 	andi	r2,r2,26
  8006fc:	00c00284 	movi	r3,10
  800700:	10c0c626 	beq	r2,r3,800a1c <___vfprintf_internal_r+0x3bc>
  800704:	d8c00404 	addi	r3,sp,16
  800708:	05002074 	movhi	r20,129
  80070c:	d9001e04 	addi	r4,sp,120
  800710:	a501d284 	addi	r20,r20,1866
  800714:	d8c01e15 	stw	r3,120(sp)
  800718:	d8002015 	stw	zero,128(sp)
  80071c:	d8001f15 	stw	zero,124(sp)
  800720:	d8003315 	stw	zero,204(sp)
  800724:	d8003615 	stw	zero,216(sp)
  800728:	d8003815 	stw	zero,224(sp)
  80072c:	1811883a 	mov	r8,r3
  800730:	d8003915 	stw	zero,228(sp)
  800734:	d8003a15 	stw	zero,232(sp)
  800738:	d8002f15 	stw	zero,188(sp)
  80073c:	d9002815 	stw	r4,160(sp)
  800740:	a8800007 	ldb	r2,0(r21)
  800744:	10028b26 	beq	r2,zero,801174 <___vfprintf_internal_r+0xb14>
  800748:	00c00944 	movi	r3,37
  80074c:	a823883a 	mov	r17,r21
  800750:	10c0021e 	bne	r2,r3,80075c <___vfprintf_internal_r+0xfc>
  800754:	00001406 	br	8007a8 <___vfprintf_internal_r+0x148>
  800758:	10c00326 	beq	r2,r3,800768 <___vfprintf_internal_r+0x108>
  80075c:	8c400044 	addi	r17,r17,1
  800760:	88800007 	ldb	r2,0(r17)
  800764:	103ffc1e 	bne	r2,zero,800758 <__alt_mem_onchip_memory2+0xff7e0758>
  800768:	8d61c83a 	sub	r16,r17,r21
  80076c:	80000e26 	beq	r16,zero,8007a8 <___vfprintf_internal_r+0x148>
  800770:	d8c02017 	ldw	r3,128(sp)
  800774:	d8801f17 	ldw	r2,124(sp)
  800778:	45400015 	stw	r21,0(r8)
  80077c:	1c07883a 	add	r3,r3,r16
  800780:	10800044 	addi	r2,r2,1
  800784:	d8c02015 	stw	r3,128(sp)
  800788:	44000115 	stw	r16,4(r8)
  80078c:	d8801f15 	stw	r2,124(sp)
  800790:	00c001c4 	movi	r3,7
  800794:	1880a916 	blt	r3,r2,800a3c <___vfprintf_internal_r+0x3dc>
  800798:	42000204 	addi	r8,r8,8
  80079c:	d9402f17 	ldw	r5,188(sp)
  8007a0:	2c0b883a 	add	r5,r5,r16
  8007a4:	d9402f15 	stw	r5,188(sp)
  8007a8:	88800007 	ldb	r2,0(r17)
  8007ac:	1000aa26 	beq	r2,zero,800a58 <___vfprintf_internal_r+0x3f8>
  8007b0:	8d400044 	addi	r21,r17,1
  8007b4:	8c400047 	ldb	r17,1(r17)
  8007b8:	0021883a 	mov	r16,zero
  8007bc:	00bfffc4 	movi	r2,-1
  8007c0:	0025883a 	mov	r18,zero
  8007c4:	dc002905 	stb	r16,164(sp)
  8007c8:	d8002785 	stb	zero,158(sp)
  8007cc:	d8002b05 	stb	zero,172(sp)
  8007d0:	d8802a15 	stw	r2,168(sp)
  8007d4:	d8003115 	stw	zero,196(sp)
  8007d8:	04c01604 	movi	r19,88
  8007dc:	05800244 	movi	r22,9
  8007e0:	9021883a 	mov	r16,r18
  8007e4:	4039883a 	mov	fp,r8
  8007e8:	ad400044 	addi	r21,r21,1
  8007ec:	88bff804 	addi	r2,r17,-32
  8007f0:	98833236 	bltu	r19,r2,8014bc <___vfprintf_internal_r+0xe5c>
  8007f4:	100490ba 	slli	r2,r2,2
  8007f8:	00c02034 	movhi	r3,128
  8007fc:	18c20304 	addi	r3,r3,2060
  800800:	10c5883a 	add	r2,r2,r3
  800804:	10800017 	ldw	r2,0(r2)
  800808:	1000683a 	jmp	r2
  80080c:	008013b4 	movhi	r2,78
  800810:	008014bc 	xorhi	r2,zero,82
  800814:	008014bc 	xorhi	r2,zero,82
  800818:	008013d4 	movui	r2,79
  80081c:	008014bc 	xorhi	r2,zero,82
  800820:	008014bc 	xorhi	r2,zero,82
  800824:	008014bc 	xorhi	r2,zero,82
  800828:	008014bc 	xorhi	r2,zero,82
  80082c:	008014bc 	xorhi	r2,zero,82
  800830:	008014bc 	xorhi	r2,zero,82
  800834:	00800abc 	xorhi	r2,zero,42
  800838:	008012c4 	movi	r2,75
  80083c:	008014bc 	xorhi	r2,zero,82
  800840:	00800980 	call	80098 <__alt_mem_sdram-0x77ff68>
  800844:	00800ae0 	cmpeqi	r2,zero,43
  800848:	008014bc 	xorhi	r2,zero,82
  80084c:	00800b30 	cmpltui	r2,zero,44
  800850:	00800b3c 	xorhi	r2,zero,44
  800854:	00800b3c 	xorhi	r2,zero,44
  800858:	00800b3c 	xorhi	r2,zero,44
  80085c:	00800b3c 	xorhi	r2,zero,44
  800860:	00800b3c 	xorhi	r2,zero,44
  800864:	00800b3c 	xorhi	r2,zero,44
  800868:	00800b3c 	xorhi	r2,zero,44
  80086c:	00800b3c 	xorhi	r2,zero,44
  800870:	00800b3c 	xorhi	r2,zero,44
  800874:	008014bc 	xorhi	r2,zero,82
  800878:	008014bc 	xorhi	r2,zero,82
  80087c:	008014bc 	xorhi	r2,zero,82
  800880:	008014bc 	xorhi	r2,zero,82
  800884:	008014bc 	xorhi	r2,zero,82
  800888:	008014bc 	xorhi	r2,zero,82
  80088c:	008014bc 	xorhi	r2,zero,82
  800890:	008014bc 	xorhi	r2,zero,82
  800894:	008014bc 	xorhi	r2,zero,82
  800898:	008014bc 	xorhi	r2,zero,82
  80089c:	00800b78 	rdprs	r2,zero,45
  8008a0:	00800c40 	call	800c4 <__alt_mem_sdram-0x77ff3c>
  8008a4:	008014bc 	xorhi	r2,zero,82
  8008a8:	00800c40 	call	800c4 <__alt_mem_sdram-0x77ff3c>
  8008ac:	008014bc 	xorhi	r2,zero,82
  8008b0:	008014bc 	xorhi	r2,zero,82
  8008b4:	008014bc 	xorhi	r2,zero,82
  8008b8:	008014bc 	xorhi	r2,zero,82
  8008bc:	00800cec 	andhi	r2,zero,51
  8008c0:	008014bc 	xorhi	r2,zero,82
  8008c4:	008014bc 	xorhi	r2,zero,82
  8008c8:	00800cf8 	rdprs	r2,zero,51
  8008cc:	008014bc 	xorhi	r2,zero,82
  8008d0:	008014bc 	xorhi	r2,zero,82
  8008d4:	008014bc 	xorhi	r2,zero,82
  8008d8:	008014bc 	xorhi	r2,zero,82
  8008dc:	008014bc 	xorhi	r2,zero,82
  8008e0:	0080117c 	xorhi	r2,zero,69
  8008e4:	008014bc 	xorhi	r2,zero,82
  8008e8:	008014bc 	xorhi	r2,zero,82
  8008ec:	008011e8 	cmpgeui	r2,zero,71
  8008f0:	008014bc 	xorhi	r2,zero,82
  8008f4:	008014bc 	xorhi	r2,zero,82
  8008f8:	008014bc 	xorhi	r2,zero,82
  8008fc:	008014bc 	xorhi	r2,zero,82
  800900:	008014bc 	xorhi	r2,zero,82
  800904:	008014bc 	xorhi	r2,zero,82
  800908:	008014bc 	xorhi	r2,zero,82
  80090c:	008014bc 	xorhi	r2,zero,82
  800910:	008014bc 	xorhi	r2,zero,82
  800914:	008014bc 	xorhi	r2,zero,82
  800918:	00801460 	cmpeqi	r2,zero,81
  80091c:	008013e0 	cmpeqi	r2,zero,79
  800920:	00800c40 	call	800c4 <__alt_mem_sdram-0x77ff3c>
  800924:	00800c40 	call	800c4 <__alt_mem_sdram-0x77ff3c>
  800928:	00800c40 	call	800c4 <__alt_mem_sdram-0x77ff3c>
  80092c:	00801400 	call	80140 <__alt_mem_sdram-0x77fec0>
  800930:	008013e0 	cmpeqi	r2,zero,79
  800934:	008014bc 	xorhi	r2,zero,82
  800938:	008014bc 	xorhi	r2,zero,82
  80093c:	0080140c 	andi	r2,zero,80
  800940:	008014bc 	xorhi	r2,zero,82
  800944:	00801420 	cmpeqi	r2,zero,80
  800948:	008012a4 	muli	r2,zero,74
  80094c:	0080098c 	andi	r2,zero,38
  800950:	008012dc 	xori	r2,zero,75
  800954:	008014bc 	xorhi	r2,zero,82
  800958:	008012e8 	cmpgeui	r2,zero,75
  80095c:	008014bc 	xorhi	r2,zero,82
  800960:	0080134c 	andi	r2,zero,77
  800964:	008014bc 	xorhi	r2,zero,82
  800968:	008014bc 	xorhi	r2,zero,82
  80096c:	0080136c 	andhi	r2,zero,77
  800970:	d8c03117 	ldw	r3,196(sp)
  800974:	d8802e15 	stw	r2,184(sp)
  800978:	00c7c83a 	sub	r3,zero,r3
  80097c:	d8c03115 	stw	r3,196(sp)
  800980:	84000114 	ori	r16,r16,4
  800984:	ac400007 	ldb	r17,0(r21)
  800988:	003f9706 	br	8007e8 <__alt_mem_onchip_memory2+0xff7e07e8>
  80098c:	00800c04 	movi	r2,48
  800990:	d8802705 	stb	r2,156(sp)
  800994:	00801e04 	movi	r2,120
  800998:	d8802745 	stb	r2,157(sp)
  80099c:	d9002a17 	ldw	r4,168(sp)
  8009a0:	d8802e17 	ldw	r2,184(sp)
  8009a4:	d8002785 	stb	zero,158(sp)
  8009a8:	e011883a 	mov	r8,fp
  8009ac:	10c00104 	addi	r3,r2,4
  8009b0:	14c00017 	ldw	r19,0(r2)
  8009b4:	002d883a 	mov	r22,zero
  8009b8:	80800094 	ori	r2,r16,2
  8009bc:	2002ca16 	blt	r4,zero,8014e8 <___vfprintf_internal_r+0xe88>
  8009c0:	00bfdfc4 	movi	r2,-129
  8009c4:	80a4703a 	and	r18,r16,r2
  8009c8:	d8c02e15 	stw	r3,184(sp)
  8009cc:	94800094 	ori	r18,r18,2
  8009d0:	9802b41e 	bne	r19,zero,8014a4 <___vfprintf_internal_r+0xe44>
  8009d4:	01402074 	movhi	r5,129
  8009d8:	2941cb04 	addi	r5,r5,1836
  8009dc:	d9403915 	stw	r5,228(sp)
  8009e0:	04401e04 	movi	r17,120
  8009e4:	d8802a17 	ldw	r2,168(sp)
  8009e8:	0039883a 	mov	fp,zero
  8009ec:	1001fa26 	beq	r2,zero,8011d8 <___vfprintf_internal_r+0xb78>
  8009f0:	0027883a 	mov	r19,zero
  8009f4:	002d883a 	mov	r22,zero
  8009f8:	00021906 	br	801260 <___vfprintf_internal_r+0xc00>
  8009fc:	d9002d17 	ldw	r4,180(sp)
  800a00:	b80b883a 	mov	r5,r23
  800a04:	0802a140 	call	802a14 <__swsetup_r>
  800a08:	1005dc1e 	bne	r2,zero,80217c <___vfprintf_internal_r+0x1b1c>
  800a0c:	b880030b 	ldhu	r2,12(r23)
  800a10:	00c00284 	movi	r3,10
  800a14:	1080068c 	andi	r2,r2,26
  800a18:	10ff3a1e 	bne	r2,r3,800704 <__alt_mem_onchip_memory2+0xff7e0704>
  800a1c:	b880038f 	ldh	r2,14(r23)
  800a20:	103f3816 	blt	r2,zero,800704 <__alt_mem_onchip_memory2+0xff7e0704>
  800a24:	d9c02e17 	ldw	r7,184(sp)
  800a28:	d9002d17 	ldw	r4,180(sp)
  800a2c:	a80d883a 	mov	r6,r21
  800a30:	b80b883a 	mov	r5,r23
  800a34:	08029580 	call	802958 <__sbprintf>
  800a38:	00001106 	br	800a80 <___vfprintf_internal_r+0x420>
  800a3c:	d9002d17 	ldw	r4,180(sp)
  800a40:	d9801e04 	addi	r6,sp,120
  800a44:	b80b883a 	mov	r5,r23
  800a48:	08080300 	call	808030 <__sprint_r>
  800a4c:	1000081e 	bne	r2,zero,800a70 <___vfprintf_internal_r+0x410>
  800a50:	da000404 	addi	r8,sp,16
  800a54:	003f5106 	br	80079c <__alt_mem_onchip_memory2+0xff7e079c>
  800a58:	d8802017 	ldw	r2,128(sp)
  800a5c:	10000426 	beq	r2,zero,800a70 <___vfprintf_internal_r+0x410>
  800a60:	d9002d17 	ldw	r4,180(sp)
  800a64:	d9801e04 	addi	r6,sp,120
  800a68:	b80b883a 	mov	r5,r23
  800a6c:	08080300 	call	808030 <__sprint_r>
  800a70:	b880030b 	ldhu	r2,12(r23)
  800a74:	1080100c 	andi	r2,r2,64
  800a78:	1005c01e 	bne	r2,zero,80217c <___vfprintf_internal_r+0x1b1c>
  800a7c:	d8802f17 	ldw	r2,188(sp)
  800a80:	dfc04717 	ldw	ra,284(sp)
  800a84:	df004617 	ldw	fp,280(sp)
  800a88:	ddc04517 	ldw	r23,276(sp)
  800a8c:	dd804417 	ldw	r22,272(sp)
  800a90:	dd404317 	ldw	r21,268(sp)
  800a94:	dd004217 	ldw	r20,264(sp)
  800a98:	dcc04117 	ldw	r19,260(sp)
  800a9c:	dc804017 	ldw	r18,256(sp)
  800aa0:	dc403f17 	ldw	r17,252(sp)
  800aa4:	dc003e17 	ldw	r16,248(sp)
  800aa8:	dec04804 	addi	sp,sp,288
  800aac:	f800283a 	ret
  800ab0:	d9002d17 	ldw	r4,180(sp)
  800ab4:	0804a200 	call	804a20 <__sinit>
  800ab8:	003f0206 	br	8006c4 <__alt_mem_onchip_memory2+0xff7e06c4>
  800abc:	d9002e17 	ldw	r4,184(sp)
  800ac0:	d9402e17 	ldw	r5,184(sp)
  800ac4:	21000017 	ldw	r4,0(r4)
  800ac8:	28800104 	addi	r2,r5,4
  800acc:	d9003115 	stw	r4,196(sp)
  800ad0:	203fa716 	blt	r4,zero,800970 <__alt_mem_onchip_memory2+0xff7e0970>
  800ad4:	d8802e15 	stw	r2,184(sp)
  800ad8:	ac400007 	ldb	r17,0(r21)
  800adc:	003f4206 	br	8007e8 <__alt_mem_onchip_memory2+0xff7e07e8>
  800ae0:	ac400007 	ldb	r17,0(r21)
  800ae4:	01000a84 	movi	r4,42
  800ae8:	a8c00044 	addi	r3,r21,1
  800aec:	89075826 	beq	r17,r4,802850 <___vfprintf_internal_r+0x21f0>
  800af0:	8cbff404 	addi	r18,r17,-48
  800af4:	b486ae36 	bltu	r22,r18,8025b0 <___vfprintf_internal_r+0x1f50>
  800af8:	0009883a 	mov	r4,zero
  800afc:	1823883a 	mov	r17,r3
  800b00:	01400284 	movi	r5,10
  800b04:	080acec0 	call	80acec <__mulsi3>
  800b08:	88c00007 	ldb	r3,0(r17)
  800b0c:	1489883a 	add	r4,r2,r18
  800b10:	8d400044 	addi	r21,r17,1
  800b14:	1cbff404 	addi	r18,r3,-48
  800b18:	a823883a 	mov	r17,r21
  800b1c:	b4bff82e 	bgeu	r22,r18,800b00 <__alt_mem_onchip_memory2+0xff7e0b00>
  800b20:	1823883a 	mov	r17,r3
  800b24:	2005f616 	blt	r4,zero,802300 <___vfprintf_internal_r+0x1ca0>
  800b28:	d9002a15 	stw	r4,168(sp)
  800b2c:	003f2f06 	br	8007ec <__alt_mem_onchip_memory2+0xff7e07ec>
  800b30:	84002014 	ori	r16,r16,128
  800b34:	ac400007 	ldb	r17,0(r21)
  800b38:	003f2b06 	br	8007e8 <__alt_mem_onchip_memory2+0xff7e07e8>
  800b3c:	8cbff404 	addi	r18,r17,-48
  800b40:	d8003115 	stw	zero,196(sp)
  800b44:	0009883a 	mov	r4,zero
  800b48:	a823883a 	mov	r17,r21
  800b4c:	01400284 	movi	r5,10
  800b50:	080acec0 	call	80acec <__mulsi3>
  800b54:	88c00007 	ldb	r3,0(r17)
  800b58:	9089883a 	add	r4,r18,r2
  800b5c:	ad400044 	addi	r21,r21,1
  800b60:	1cbff404 	addi	r18,r3,-48
  800b64:	a823883a 	mov	r17,r21
  800b68:	b4bff82e 	bgeu	r22,r18,800b4c <__alt_mem_onchip_memory2+0xff7e0b4c>
  800b6c:	1823883a 	mov	r17,r3
  800b70:	d9003115 	stw	r4,196(sp)
  800b74:	003f1d06 	br	8007ec <__alt_mem_onchip_memory2+0xff7e07ec>
  800b78:	8025883a 	mov	r18,r16
  800b7c:	dc002903 	ldbu	r16,164(sp)
  800b80:	e011883a 	mov	r8,fp
  800b84:	84003fcc 	andi	r16,r16,255
  800b88:	8007531e 	bne	r16,zero,8028d8 <___vfprintf_internal_r+0x2278>
  800b8c:	94800414 	ori	r18,r18,16
  800b90:	9080080c 	andi	r2,r18,32
  800b94:	1003a326 	beq	r2,zero,801a24 <___vfprintf_internal_r+0x13c4>
  800b98:	d9002e17 	ldw	r4,184(sp)
  800b9c:	20800117 	ldw	r2,4(r4)
  800ba0:	24c00017 	ldw	r19,0(r4)
  800ba4:	21000204 	addi	r4,r4,8
  800ba8:	d9002e15 	stw	r4,184(sp)
  800bac:	102d883a 	mov	r22,r2
  800bb0:	10047316 	blt	r2,zero,801d80 <___vfprintf_internal_r+0x1720>
  800bb4:	d9002a17 	ldw	r4,168(sp)
  800bb8:	df002783 	ldbu	fp,158(sp)
  800bbc:	2003e416 	blt	r4,zero,801b50 <___vfprintf_internal_r+0x14f0>
  800bc0:	00ffdfc4 	movi	r3,-129
  800bc4:	9d84b03a 	or	r2,r19,r22
  800bc8:	90e4703a 	and	r18,r18,r3
  800bcc:	10018026 	beq	r2,zero,8011d0 <___vfprintf_internal_r+0xb70>
  800bd0:	b003ab26 	beq	r22,zero,801a80 <___vfprintf_internal_r+0x1420>
  800bd4:	dc402915 	stw	r17,164(sp)
  800bd8:	dc001e04 	addi	r16,sp,120
  800bdc:	b023883a 	mov	r17,r22
  800be0:	402d883a 	mov	r22,r8
  800be4:	9809883a 	mov	r4,r19
  800be8:	880b883a 	mov	r5,r17
  800bec:	01800284 	movi	r6,10
  800bf0:	000f883a 	mov	r7,zero
  800bf4:	080a5740 	call	80a574 <__umoddi3>
  800bf8:	10800c04 	addi	r2,r2,48
  800bfc:	843fffc4 	addi	r16,r16,-1
  800c00:	9809883a 	mov	r4,r19
  800c04:	880b883a 	mov	r5,r17
  800c08:	80800005 	stb	r2,0(r16)
  800c0c:	01800284 	movi	r6,10
  800c10:	000f883a 	mov	r7,zero
  800c14:	0809f780 	call	809f78 <__udivdi3>
  800c18:	1027883a 	mov	r19,r2
  800c1c:	10c4b03a 	or	r2,r2,r3
  800c20:	1823883a 	mov	r17,r3
  800c24:	103fef1e 	bne	r2,zero,800be4 <__alt_mem_onchip_memory2+0xff7e0be4>
  800c28:	d8c02817 	ldw	r3,160(sp)
  800c2c:	dc402917 	ldw	r17,164(sp)
  800c30:	b011883a 	mov	r8,r22
  800c34:	1c07c83a 	sub	r3,r3,r16
  800c38:	d8c02b15 	stw	r3,172(sp)
  800c3c:	00005f06 	br	800dbc <___vfprintf_internal_r+0x75c>
  800c40:	8025883a 	mov	r18,r16
  800c44:	dc002903 	ldbu	r16,164(sp)
  800c48:	e011883a 	mov	r8,fp
  800c4c:	84003fcc 	andi	r16,r16,255
  800c50:	80071e1e 	bne	r16,zero,8028cc <___vfprintf_internal_r+0x226c>
  800c54:	9080020c 	andi	r2,r18,8
  800c58:	1004af26 	beq	r2,zero,801f18 <___vfprintf_internal_r+0x18b8>
  800c5c:	d9002e17 	ldw	r4,184(sp)
  800c60:	d9402e17 	ldw	r5,184(sp)
  800c64:	d8802e17 	ldw	r2,184(sp)
  800c68:	21000017 	ldw	r4,0(r4)
  800c6c:	29400117 	ldw	r5,4(r5)
  800c70:	10800204 	addi	r2,r2,8
  800c74:	d9003615 	stw	r4,216(sp)
  800c78:	d9403815 	stw	r5,224(sp)
  800c7c:	d8802e15 	stw	r2,184(sp)
  800c80:	d9003617 	ldw	r4,216(sp)
  800c84:	d9403817 	ldw	r5,224(sp)
  800c88:	da003d15 	stw	r8,244(sp)
  800c8c:	04000044 	movi	r16,1
  800c90:	0807c540 	call	807c54 <__fpclassifyd>
  800c94:	da003d17 	ldw	r8,244(sp)
  800c98:	1404441e 	bne	r2,r16,801dac <___vfprintf_internal_r+0x174c>
  800c9c:	d9003617 	ldw	r4,216(sp)
  800ca0:	d9403817 	ldw	r5,224(sp)
  800ca4:	000d883a 	mov	r6,zero
  800ca8:	000f883a 	mov	r7,zero
  800cac:	080c0f40 	call	80c0f4 <__ledf2>
  800cb0:	da003d17 	ldw	r8,244(sp)
  800cb4:	1005e316 	blt	r2,zero,802444 <___vfprintf_internal_r+0x1de4>
  800cb8:	df002783 	ldbu	fp,158(sp)
  800cbc:	008011c4 	movi	r2,71
  800cc0:	1445580e 	bge	r2,r17,802224 <___vfprintf_internal_r+0x1bc4>
  800cc4:	04002074 	movhi	r16,129
  800cc8:	8401c304 	addi	r16,r16,1804
  800ccc:	00c000c4 	movi	r3,3
  800cd0:	00bfdfc4 	movi	r2,-129
  800cd4:	d8c02915 	stw	r3,164(sp)
  800cd8:	90a4703a 	and	r18,r18,r2
  800cdc:	d8c02b15 	stw	r3,172(sp)
  800ce0:	d8002a15 	stw	zero,168(sp)
  800ce4:	d8003215 	stw	zero,200(sp)
  800ce8:	00003a06 	br	800dd4 <___vfprintf_internal_r+0x774>
  800cec:	84000214 	ori	r16,r16,8
  800cf0:	ac400007 	ldb	r17,0(r21)
  800cf4:	003ebc06 	br	8007e8 <__alt_mem_onchip_memory2+0xff7e07e8>
  800cf8:	8025883a 	mov	r18,r16
  800cfc:	dc002903 	ldbu	r16,164(sp)
  800d00:	e011883a 	mov	r8,fp
  800d04:	84003fcc 	andi	r16,r16,255
  800d08:	8007001e 	bne	r16,zero,80290c <___vfprintf_internal_r+0x22ac>
  800d0c:	94800414 	ori	r18,r18,16
  800d10:	9080080c 	andi	r2,r18,32
  800d14:	1002fa26 	beq	r2,zero,801900 <___vfprintf_internal_r+0x12a0>
  800d18:	d9002e17 	ldw	r4,184(sp)
  800d1c:	d9402a17 	ldw	r5,168(sp)
  800d20:	d8002785 	stb	zero,158(sp)
  800d24:	20800204 	addi	r2,r4,8
  800d28:	24c00017 	ldw	r19,0(r4)
  800d2c:	25800117 	ldw	r22,4(r4)
  800d30:	2804b116 	blt	r5,zero,801ff8 <___vfprintf_internal_r+0x1998>
  800d34:	013fdfc4 	movi	r4,-129
  800d38:	9d86b03a 	or	r3,r19,r22
  800d3c:	d8802e15 	stw	r2,184(sp)
  800d40:	9124703a 	and	r18,r18,r4
  800d44:	1802fb1e 	bne	r3,zero,801934 <___vfprintf_internal_r+0x12d4>
  800d48:	d8c02a17 	ldw	r3,168(sp)
  800d4c:	0039883a 	mov	fp,zero
  800d50:	1805e526 	beq	r3,zero,8024e8 <___vfprintf_internal_r+0x1e88>
  800d54:	0027883a 	mov	r19,zero
  800d58:	002d883a 	mov	r22,zero
  800d5c:	dc001e04 	addi	r16,sp,120
  800d60:	9806d0fa 	srli	r3,r19,3
  800d64:	b008977a 	slli	r4,r22,29
  800d68:	b02cd0fa 	srli	r22,r22,3
  800d6c:	9cc001cc 	andi	r19,r19,7
  800d70:	98800c04 	addi	r2,r19,48
  800d74:	843fffc4 	addi	r16,r16,-1
  800d78:	20e6b03a 	or	r19,r4,r3
  800d7c:	80800005 	stb	r2,0(r16)
  800d80:	9d86b03a 	or	r3,r19,r22
  800d84:	183ff61e 	bne	r3,zero,800d60 <__alt_mem_onchip_memory2+0xff7e0d60>
  800d88:	90c0004c 	andi	r3,r18,1
  800d8c:	18014126 	beq	r3,zero,801294 <___vfprintf_internal_r+0xc34>
  800d90:	10803fcc 	andi	r2,r2,255
  800d94:	1080201c 	xori	r2,r2,128
  800d98:	10bfe004 	addi	r2,r2,-128
  800d9c:	00c00c04 	movi	r3,48
  800da0:	10c13c26 	beq	r2,r3,801294 <___vfprintf_internal_r+0xc34>
  800da4:	80ffffc5 	stb	r3,-1(r16)
  800da8:	d8c02817 	ldw	r3,160(sp)
  800dac:	80bfffc4 	addi	r2,r16,-1
  800db0:	1021883a 	mov	r16,r2
  800db4:	1887c83a 	sub	r3,r3,r2
  800db8:	d8c02b15 	stw	r3,172(sp)
  800dbc:	d8802b17 	ldw	r2,172(sp)
  800dc0:	d9002a17 	ldw	r4,168(sp)
  800dc4:	1100010e 	bge	r2,r4,800dcc <___vfprintf_internal_r+0x76c>
  800dc8:	2005883a 	mov	r2,r4
  800dcc:	d8802915 	stw	r2,164(sp)
  800dd0:	d8003215 	stw	zero,200(sp)
  800dd4:	e7003fcc 	andi	fp,fp,255
  800dd8:	e700201c 	xori	fp,fp,128
  800ddc:	e73fe004 	addi	fp,fp,-128
  800de0:	e0000326 	beq	fp,zero,800df0 <___vfprintf_internal_r+0x790>
  800de4:	d8c02917 	ldw	r3,164(sp)
  800de8:	18c00044 	addi	r3,r3,1
  800dec:	d8c02915 	stw	r3,164(sp)
  800df0:	90c0008c 	andi	r3,r18,2
  800df4:	d8c02c15 	stw	r3,176(sp)
  800df8:	18000326 	beq	r3,zero,800e08 <___vfprintf_internal_r+0x7a8>
  800dfc:	d8c02917 	ldw	r3,164(sp)
  800e00:	18c00084 	addi	r3,r3,2
  800e04:	d8c02915 	stw	r3,164(sp)
  800e08:	90c0210c 	andi	r3,r18,132
  800e0c:	d8c03015 	stw	r3,192(sp)
  800e10:	1801c51e 	bne	r3,zero,801528 <___vfprintf_internal_r+0xec8>
  800e14:	d9003117 	ldw	r4,196(sp)
  800e18:	d8c02917 	ldw	r3,164(sp)
  800e1c:	20e7c83a 	sub	r19,r4,r3
  800e20:	04c1c10e 	bge	zero,r19,801528 <___vfprintf_internal_r+0xec8>
  800e24:	02400404 	movi	r9,16
  800e28:	d8c02017 	ldw	r3,128(sp)
  800e2c:	d8801f17 	ldw	r2,124(sp)
  800e30:	4cc52f0e 	bge	r9,r19,8022f0 <___vfprintf_internal_r+0x1c90>
  800e34:	01402074 	movhi	r5,129
  800e38:	2941d684 	addi	r5,r5,1882
  800e3c:	dc403b15 	stw	r17,236(sp)
  800e40:	d9403515 	stw	r5,212(sp)
  800e44:	9823883a 	mov	r17,r19
  800e48:	482d883a 	mov	r22,r9
  800e4c:	9027883a 	mov	r19,r18
  800e50:	070001c4 	movi	fp,7
  800e54:	8025883a 	mov	r18,r16
  800e58:	dc002d17 	ldw	r16,180(sp)
  800e5c:	00000306 	br	800e6c <___vfprintf_internal_r+0x80c>
  800e60:	8c7ffc04 	addi	r17,r17,-16
  800e64:	42000204 	addi	r8,r8,8
  800e68:	b440130e 	bge	r22,r17,800eb8 <___vfprintf_internal_r+0x858>
  800e6c:	01002074 	movhi	r4,129
  800e70:	18c00404 	addi	r3,r3,16
  800e74:	10800044 	addi	r2,r2,1
  800e78:	2101d684 	addi	r4,r4,1882
  800e7c:	41000015 	stw	r4,0(r8)
  800e80:	45800115 	stw	r22,4(r8)
  800e84:	d8c02015 	stw	r3,128(sp)
  800e88:	d8801f15 	stw	r2,124(sp)
  800e8c:	e0bff40e 	bge	fp,r2,800e60 <__alt_mem_onchip_memory2+0xff7e0e60>
  800e90:	d9801e04 	addi	r6,sp,120
  800e94:	b80b883a 	mov	r5,r23
  800e98:	8009883a 	mov	r4,r16
  800e9c:	08080300 	call	808030 <__sprint_r>
  800ea0:	103ef31e 	bne	r2,zero,800a70 <__alt_mem_onchip_memory2+0xff7e0a70>
  800ea4:	8c7ffc04 	addi	r17,r17,-16
  800ea8:	d8c02017 	ldw	r3,128(sp)
  800eac:	d8801f17 	ldw	r2,124(sp)
  800eb0:	da000404 	addi	r8,sp,16
  800eb4:	b47fed16 	blt	r22,r17,800e6c <__alt_mem_onchip_memory2+0xff7e0e6c>
  800eb8:	9021883a 	mov	r16,r18
  800ebc:	9825883a 	mov	r18,r19
  800ec0:	8827883a 	mov	r19,r17
  800ec4:	dc403b17 	ldw	r17,236(sp)
  800ec8:	d9403517 	ldw	r5,212(sp)
  800ecc:	98c7883a 	add	r3,r19,r3
  800ed0:	10800044 	addi	r2,r2,1
  800ed4:	41400015 	stw	r5,0(r8)
  800ed8:	44c00115 	stw	r19,4(r8)
  800edc:	d8c02015 	stw	r3,128(sp)
  800ee0:	d8801f15 	stw	r2,124(sp)
  800ee4:	010001c4 	movi	r4,7
  800ee8:	2082c516 	blt	r4,r2,801a00 <___vfprintf_internal_r+0x13a0>
  800eec:	df002787 	ldb	fp,158(sp)
  800ef0:	42000204 	addi	r8,r8,8
  800ef4:	e0000c26 	beq	fp,zero,800f28 <___vfprintf_internal_r+0x8c8>
  800ef8:	d8801f17 	ldw	r2,124(sp)
  800efc:	d9002784 	addi	r4,sp,158
  800f00:	18c00044 	addi	r3,r3,1
  800f04:	10800044 	addi	r2,r2,1
  800f08:	41000015 	stw	r4,0(r8)
  800f0c:	01000044 	movi	r4,1
  800f10:	41000115 	stw	r4,4(r8)
  800f14:	d8c02015 	stw	r3,128(sp)
  800f18:	d8801f15 	stw	r2,124(sp)
  800f1c:	010001c4 	movi	r4,7
  800f20:	20825e16 	blt	r4,r2,80189c <___vfprintf_internal_r+0x123c>
  800f24:	42000204 	addi	r8,r8,8
  800f28:	d8802c17 	ldw	r2,176(sp)
  800f2c:	10000c26 	beq	r2,zero,800f60 <___vfprintf_internal_r+0x900>
  800f30:	d8801f17 	ldw	r2,124(sp)
  800f34:	d9002704 	addi	r4,sp,156
  800f38:	18c00084 	addi	r3,r3,2
  800f3c:	10800044 	addi	r2,r2,1
  800f40:	41000015 	stw	r4,0(r8)
  800f44:	01000084 	movi	r4,2
  800f48:	41000115 	stw	r4,4(r8)
  800f4c:	d8c02015 	stw	r3,128(sp)
  800f50:	d8801f15 	stw	r2,124(sp)
  800f54:	010001c4 	movi	r4,7
  800f58:	20825816 	blt	r4,r2,8018bc <___vfprintf_internal_r+0x125c>
  800f5c:	42000204 	addi	r8,r8,8
  800f60:	d9003017 	ldw	r4,192(sp)
  800f64:	00802004 	movi	r2,128
  800f68:	2081bb26 	beq	r4,r2,801658 <___vfprintf_internal_r+0xff8>
  800f6c:	d9402a17 	ldw	r5,168(sp)
  800f70:	d8802b17 	ldw	r2,172(sp)
  800f74:	28adc83a 	sub	r22,r5,r2
  800f78:	0580310e 	bge	zero,r22,801040 <___vfprintf_internal_r+0x9e0>
  800f7c:	07000404 	movi	fp,16
  800f80:	d8801f17 	ldw	r2,124(sp)
  800f84:	e584360e 	bge	fp,r22,802060 <___vfprintf_internal_r+0x1a00>
  800f88:	01402074 	movhi	r5,129
  800f8c:	2941d284 	addi	r5,r5,1866
  800f90:	dc402a15 	stw	r17,168(sp)
  800f94:	d9402c15 	stw	r5,176(sp)
  800f98:	b023883a 	mov	r17,r22
  800f9c:	04c001c4 	movi	r19,7
  800fa0:	a82d883a 	mov	r22,r21
  800fa4:	902b883a 	mov	r21,r18
  800fa8:	8025883a 	mov	r18,r16
  800fac:	dc002d17 	ldw	r16,180(sp)
  800fb0:	00000306 	br	800fc0 <___vfprintf_internal_r+0x960>
  800fb4:	8c7ffc04 	addi	r17,r17,-16
  800fb8:	42000204 	addi	r8,r8,8
  800fbc:	e440110e 	bge	fp,r17,801004 <___vfprintf_internal_r+0x9a4>
  800fc0:	18c00404 	addi	r3,r3,16
  800fc4:	10800044 	addi	r2,r2,1
  800fc8:	45000015 	stw	r20,0(r8)
  800fcc:	47000115 	stw	fp,4(r8)
  800fd0:	d8c02015 	stw	r3,128(sp)
  800fd4:	d8801f15 	stw	r2,124(sp)
  800fd8:	98bff60e 	bge	r19,r2,800fb4 <__alt_mem_onchip_memory2+0xff7e0fb4>
  800fdc:	d9801e04 	addi	r6,sp,120
  800fe0:	b80b883a 	mov	r5,r23
  800fe4:	8009883a 	mov	r4,r16
  800fe8:	08080300 	call	808030 <__sprint_r>
  800fec:	103ea01e 	bne	r2,zero,800a70 <__alt_mem_onchip_memory2+0xff7e0a70>
  800ff0:	8c7ffc04 	addi	r17,r17,-16
  800ff4:	d8c02017 	ldw	r3,128(sp)
  800ff8:	d8801f17 	ldw	r2,124(sp)
  800ffc:	da000404 	addi	r8,sp,16
  801000:	e47fef16 	blt	fp,r17,800fc0 <__alt_mem_onchip_memory2+0xff7e0fc0>
  801004:	9021883a 	mov	r16,r18
  801008:	a825883a 	mov	r18,r21
  80100c:	b02b883a 	mov	r21,r22
  801010:	882d883a 	mov	r22,r17
  801014:	dc402a17 	ldw	r17,168(sp)
  801018:	d9002c17 	ldw	r4,176(sp)
  80101c:	1d87883a 	add	r3,r3,r22
  801020:	10800044 	addi	r2,r2,1
  801024:	41000015 	stw	r4,0(r8)
  801028:	45800115 	stw	r22,4(r8)
  80102c:	d8c02015 	stw	r3,128(sp)
  801030:	d8801f15 	stw	r2,124(sp)
  801034:	010001c4 	movi	r4,7
  801038:	20821016 	blt	r4,r2,80187c <___vfprintf_internal_r+0x121c>
  80103c:	42000204 	addi	r8,r8,8
  801040:	9080400c 	andi	r2,r18,256
  801044:	10013a1e 	bne	r2,zero,801530 <___vfprintf_internal_r+0xed0>
  801048:	d9402b17 	ldw	r5,172(sp)
  80104c:	d8801f17 	ldw	r2,124(sp)
  801050:	44000015 	stw	r16,0(r8)
  801054:	1947883a 	add	r3,r3,r5
  801058:	10800044 	addi	r2,r2,1
  80105c:	41400115 	stw	r5,4(r8)
  801060:	d8c02015 	stw	r3,128(sp)
  801064:	d8801f15 	stw	r2,124(sp)
  801068:	010001c4 	movi	r4,7
  80106c:	2081f516 	blt	r4,r2,801844 <___vfprintf_internal_r+0x11e4>
  801070:	42000204 	addi	r8,r8,8
  801074:	9480010c 	andi	r18,r18,4
  801078:	90003226 	beq	r18,zero,801144 <___vfprintf_internal_r+0xae4>
  80107c:	d9403117 	ldw	r5,196(sp)
  801080:	d8802917 	ldw	r2,164(sp)
  801084:	28a1c83a 	sub	r16,r5,r2
  801088:	04002e0e 	bge	zero,r16,801144 <___vfprintf_internal_r+0xae4>
  80108c:	04400404 	movi	r17,16
  801090:	d8801f17 	ldw	r2,124(sp)
  801094:	8c04c40e 	bge	r17,r16,8023a8 <___vfprintf_internal_r+0x1d48>
  801098:	01402074 	movhi	r5,129
  80109c:	2941d684 	addi	r5,r5,1882
  8010a0:	d9403515 	stw	r5,212(sp)
  8010a4:	048001c4 	movi	r18,7
  8010a8:	dcc02d17 	ldw	r19,180(sp)
  8010ac:	00000306 	br	8010bc <___vfprintf_internal_r+0xa5c>
  8010b0:	843ffc04 	addi	r16,r16,-16
  8010b4:	42000204 	addi	r8,r8,8
  8010b8:	8c00130e 	bge	r17,r16,801108 <___vfprintf_internal_r+0xaa8>
  8010bc:	01002074 	movhi	r4,129
  8010c0:	18c00404 	addi	r3,r3,16
  8010c4:	10800044 	addi	r2,r2,1
  8010c8:	2101d684 	addi	r4,r4,1882
  8010cc:	41000015 	stw	r4,0(r8)
  8010d0:	44400115 	stw	r17,4(r8)
  8010d4:	d8c02015 	stw	r3,128(sp)
  8010d8:	d8801f15 	stw	r2,124(sp)
  8010dc:	90bff40e 	bge	r18,r2,8010b0 <__alt_mem_onchip_memory2+0xff7e10b0>
  8010e0:	d9801e04 	addi	r6,sp,120
  8010e4:	b80b883a 	mov	r5,r23
  8010e8:	9809883a 	mov	r4,r19
  8010ec:	08080300 	call	808030 <__sprint_r>
  8010f0:	103e5f1e 	bne	r2,zero,800a70 <__alt_mem_onchip_memory2+0xff7e0a70>
  8010f4:	843ffc04 	addi	r16,r16,-16
  8010f8:	d8c02017 	ldw	r3,128(sp)
  8010fc:	d8801f17 	ldw	r2,124(sp)
  801100:	da000404 	addi	r8,sp,16
  801104:	8c3fed16 	blt	r17,r16,8010bc <__alt_mem_onchip_memory2+0xff7e10bc>
  801108:	d9403517 	ldw	r5,212(sp)
  80110c:	1c07883a 	add	r3,r3,r16
  801110:	10800044 	addi	r2,r2,1
  801114:	41400015 	stw	r5,0(r8)
  801118:	44000115 	stw	r16,4(r8)
  80111c:	d8c02015 	stw	r3,128(sp)
  801120:	d8801f15 	stw	r2,124(sp)
  801124:	010001c4 	movi	r4,7
  801128:	2080060e 	bge	r4,r2,801144 <___vfprintf_internal_r+0xae4>
  80112c:	d9002d17 	ldw	r4,180(sp)
  801130:	d9801e04 	addi	r6,sp,120
  801134:	b80b883a 	mov	r5,r23
  801138:	08080300 	call	808030 <__sprint_r>
  80113c:	103e4c1e 	bne	r2,zero,800a70 <__alt_mem_onchip_memory2+0xff7e0a70>
  801140:	d8c02017 	ldw	r3,128(sp)
  801144:	d8803117 	ldw	r2,196(sp)
  801148:	d9002917 	ldw	r4,164(sp)
  80114c:	1100010e 	bge	r2,r4,801154 <___vfprintf_internal_r+0xaf4>
  801150:	2005883a 	mov	r2,r4
  801154:	d9402f17 	ldw	r5,188(sp)
  801158:	288b883a 	add	r5,r5,r2
  80115c:	d9402f15 	stw	r5,188(sp)
  801160:	1801c01e 	bne	r3,zero,801864 <___vfprintf_internal_r+0x1204>
  801164:	a8800007 	ldb	r2,0(r21)
  801168:	d8001f15 	stw	zero,124(sp)
  80116c:	da000404 	addi	r8,sp,16
  801170:	103d751e 	bne	r2,zero,800748 <__alt_mem_onchip_memory2+0xff7e0748>
  801174:	a823883a 	mov	r17,r21
  801178:	003d8b06 	br	8007a8 <__alt_mem_onchip_memory2+0xff7e07a8>
  80117c:	8025883a 	mov	r18,r16
  801180:	dc002903 	ldbu	r16,164(sp)
  801184:	e011883a 	mov	r8,fp
  801188:	84003fcc 	andi	r16,r16,255
  80118c:	8005e51e 	bne	r16,zero,802924 <___vfprintf_internal_r+0x22c4>
  801190:	94800414 	ori	r18,r18,16
  801194:	9080080c 	andi	r2,r18,32
  801198:	10022b26 	beq	r2,zero,801a48 <___vfprintf_internal_r+0x13e8>
  80119c:	d9002e17 	ldw	r4,184(sp)
  8011a0:	d9402a17 	ldw	r5,168(sp)
  8011a4:	d8002785 	stb	zero,158(sp)
  8011a8:	20c00204 	addi	r3,r4,8
  8011ac:	24c00017 	ldw	r19,0(r4)
  8011b0:	25800117 	ldw	r22,4(r4)
  8011b4:	28042e16 	blt	r5,zero,802270 <___vfprintf_internal_r+0x1c10>
  8011b8:	013fdfc4 	movi	r4,-129
  8011bc:	9d84b03a 	or	r2,r19,r22
  8011c0:	d8c02e15 	stw	r3,184(sp)
  8011c4:	9124703a 	and	r18,r18,r4
  8011c8:	0039883a 	mov	fp,zero
  8011cc:	103e801e 	bne	r2,zero,800bd0 <__alt_mem_onchip_memory2+0xff7e0bd0>
  8011d0:	d9002a17 	ldw	r4,168(sp)
  8011d4:	2002e01e 	bne	r4,zero,801d58 <___vfprintf_internal_r+0x16f8>
  8011d8:	d8002a15 	stw	zero,168(sp)
  8011dc:	d8002b15 	stw	zero,172(sp)
  8011e0:	dc001e04 	addi	r16,sp,120
  8011e4:	003ef506 	br	800dbc <__alt_mem_onchip_memory2+0xff7e0dbc>
  8011e8:	8025883a 	mov	r18,r16
  8011ec:	dc002903 	ldbu	r16,164(sp)
  8011f0:	e011883a 	mov	r8,fp
  8011f4:	84003fcc 	andi	r16,r16,255
  8011f8:	8005ba1e 	bne	r16,zero,8028e4 <___vfprintf_internal_r+0x2284>
  8011fc:	01002074 	movhi	r4,129
  801200:	2101c604 	addi	r4,r4,1816
  801204:	d9003915 	stw	r4,228(sp)
  801208:	9080080c 	andi	r2,r18,32
  80120c:	10006126 	beq	r2,zero,801394 <___vfprintf_internal_r+0xd34>
  801210:	d9402e17 	ldw	r5,184(sp)
  801214:	2cc00017 	ldw	r19,0(r5)
  801218:	2d800117 	ldw	r22,4(r5)
  80121c:	29400204 	addi	r5,r5,8
  801220:	d9402e15 	stw	r5,184(sp)
  801224:	9080004c 	andi	r2,r18,1
  801228:	1001ac26 	beq	r2,zero,8018dc <___vfprintf_internal_r+0x127c>
  80122c:	9d84b03a 	or	r2,r19,r22
  801230:	10038526 	beq	r2,zero,802048 <___vfprintf_internal_r+0x19e8>
  801234:	d8c02a17 	ldw	r3,168(sp)
  801238:	00800c04 	movi	r2,48
  80123c:	d8802705 	stb	r2,156(sp)
  801240:	dc402745 	stb	r17,157(sp)
  801244:	d8002785 	stb	zero,158(sp)
  801248:	90800094 	ori	r2,r18,2
  80124c:	18047916 	blt	r3,zero,802434 <___vfprintf_internal_r+0x1dd4>
  801250:	00bfdfc4 	movi	r2,-129
  801254:	90a4703a 	and	r18,r18,r2
  801258:	94800094 	ori	r18,r18,2
  80125c:	0039883a 	mov	fp,zero
  801260:	d9003917 	ldw	r4,228(sp)
  801264:	dc001e04 	addi	r16,sp,120
  801268:	988003cc 	andi	r2,r19,15
  80126c:	b006973a 	slli	r3,r22,28
  801270:	2085883a 	add	r2,r4,r2
  801274:	9826d13a 	srli	r19,r19,4
  801278:	10800003 	ldbu	r2,0(r2)
  80127c:	b02cd13a 	srli	r22,r22,4
  801280:	843fffc4 	addi	r16,r16,-1
  801284:	1ce6b03a 	or	r19,r3,r19
  801288:	80800005 	stb	r2,0(r16)
  80128c:	9d84b03a 	or	r2,r19,r22
  801290:	103ff51e 	bne	r2,zero,801268 <__alt_mem_onchip_memory2+0xff7e1268>
  801294:	d8c02817 	ldw	r3,160(sp)
  801298:	1c07c83a 	sub	r3,r3,r16
  80129c:	d8c02b15 	stw	r3,172(sp)
  8012a0:	003ec606 	br	800dbc <__alt_mem_onchip_memory2+0xff7e0dbc>
  8012a4:	8025883a 	mov	r18,r16
  8012a8:	dc002903 	ldbu	r16,164(sp)
  8012ac:	e011883a 	mov	r8,fp
  8012b0:	84003fcc 	andi	r16,r16,255
  8012b4:	803e9626 	beq	r16,zero,800d10 <__alt_mem_onchip_memory2+0xff7e0d10>
  8012b8:	d8c02b03 	ldbu	r3,172(sp)
  8012bc:	d8c02785 	stb	r3,158(sp)
  8012c0:	003e9306 	br	800d10 <__alt_mem_onchip_memory2+0xff7e0d10>
  8012c4:	00c00044 	movi	r3,1
  8012c8:	d8c02905 	stb	r3,164(sp)
  8012cc:	00c00ac4 	movi	r3,43
  8012d0:	d8c02b05 	stb	r3,172(sp)
  8012d4:	ac400007 	ldb	r17,0(r21)
  8012d8:	003d4306 	br	8007e8 <__alt_mem_onchip_memory2+0xff7e07e8>
  8012dc:	84000814 	ori	r16,r16,32
  8012e0:	ac400007 	ldb	r17,0(r21)
  8012e4:	003d4006 	br	8007e8 <__alt_mem_onchip_memory2+0xff7e07e8>
  8012e8:	d8802e17 	ldw	r2,184(sp)
  8012ec:	8025883a 	mov	r18,r16
  8012f0:	d8002785 	stb	zero,158(sp)
  8012f4:	14000017 	ldw	r16,0(r2)
  8012f8:	e011883a 	mov	r8,fp
  8012fc:	14c00104 	addi	r19,r2,4
  801300:	80042d26 	beq	r16,zero,8023b8 <___vfprintf_internal_r+0x1d58>
  801304:	d8c02a17 	ldw	r3,168(sp)
  801308:	1803e416 	blt	r3,zero,80229c <___vfprintf_internal_r+0x1c3c>
  80130c:	180d883a 	mov	r6,r3
  801310:	000b883a 	mov	r5,zero
  801314:	8009883a 	mov	r4,r16
  801318:	df003d15 	stw	fp,244(sp)
  80131c:	0805f980 	call	805f98 <memchr>
  801320:	da003d17 	ldw	r8,244(sp)
  801324:	10046826 	beq	r2,zero,8024c8 <___vfprintf_internal_r+0x1e68>
  801328:	1405c83a 	sub	r2,r2,r16
  80132c:	d8802b15 	stw	r2,172(sp)
  801330:	1003e016 	blt	r2,zero,8022b4 <___vfprintf_internal_r+0x1c54>
  801334:	df002783 	ldbu	fp,158(sp)
  801338:	d8802915 	stw	r2,164(sp)
  80133c:	dcc02e15 	stw	r19,184(sp)
  801340:	d8002a15 	stw	zero,168(sp)
  801344:	d8003215 	stw	zero,200(sp)
  801348:	003ea206 	br	800dd4 <__alt_mem_onchip_memory2+0xff7e0dd4>
  80134c:	8025883a 	mov	r18,r16
  801350:	dc002903 	ldbu	r16,164(sp)
  801354:	e011883a 	mov	r8,fp
  801358:	84003fcc 	andi	r16,r16,255
  80135c:	803f8d26 	beq	r16,zero,801194 <__alt_mem_onchip_memory2+0xff7e1194>
  801360:	d8c02b03 	ldbu	r3,172(sp)
  801364:	d8c02785 	stb	r3,158(sp)
  801368:	003f8a06 	br	801194 <__alt_mem_onchip_memory2+0xff7e1194>
  80136c:	8025883a 	mov	r18,r16
  801370:	dc002903 	ldbu	r16,164(sp)
  801374:	e011883a 	mov	r8,fp
  801378:	84003fcc 	andi	r16,r16,255
  80137c:	8005661e 	bne	r16,zero,802918 <___vfprintf_internal_r+0x22b8>
  801380:	01002074 	movhi	r4,129
  801384:	2101cb04 	addi	r4,r4,1836
  801388:	d9003915 	stw	r4,228(sp)
  80138c:	9080080c 	andi	r2,r18,32
  801390:	103f9f1e 	bne	r2,zero,801210 <__alt_mem_onchip_memory2+0xff7e1210>
  801394:	9080040c 	andi	r2,r18,16
  801398:	1002eb26 	beq	r2,zero,801f48 <___vfprintf_internal_r+0x18e8>
  80139c:	d8802e17 	ldw	r2,184(sp)
  8013a0:	002d883a 	mov	r22,zero
  8013a4:	14c00017 	ldw	r19,0(r2)
  8013a8:	10800104 	addi	r2,r2,4
  8013ac:	d8802e15 	stw	r2,184(sp)
  8013b0:	003f9c06 	br	801224 <__alt_mem_onchip_memory2+0xff7e1224>
  8013b4:	d8802b07 	ldb	r2,172(sp)
  8013b8:	1002e11e 	bne	r2,zero,801f40 <___vfprintf_internal_r+0x18e0>
  8013bc:	00c00044 	movi	r3,1
  8013c0:	d8c02905 	stb	r3,164(sp)
  8013c4:	00c00804 	movi	r3,32
  8013c8:	d8c02b05 	stb	r3,172(sp)
  8013cc:	ac400007 	ldb	r17,0(r21)
  8013d0:	003d0506 	br	8007e8 <__alt_mem_onchip_memory2+0xff7e07e8>
  8013d4:	84000054 	ori	r16,r16,1
  8013d8:	ac400007 	ldb	r17,0(r21)
  8013dc:	003d0206 	br	8007e8 <__alt_mem_onchip_memory2+0xff7e07e8>
  8013e0:	8025883a 	mov	r18,r16
  8013e4:	dc002903 	ldbu	r16,164(sp)
  8013e8:	e011883a 	mov	r8,fp
  8013ec:	84003fcc 	andi	r16,r16,255
  8013f0:	803de726 	beq	r16,zero,800b90 <__alt_mem_onchip_memory2+0xff7e0b90>
  8013f4:	d8c02b03 	ldbu	r3,172(sp)
  8013f8:	d8c02785 	stb	r3,158(sp)
  8013fc:	003de406 	br	800b90 <__alt_mem_onchip_memory2+0xff7e0b90>
  801400:	84001014 	ori	r16,r16,64
  801404:	ac400007 	ldb	r17,0(r21)
  801408:	003cf706 	br	8007e8 <__alt_mem_onchip_memory2+0xff7e07e8>
  80140c:	ac400007 	ldb	r17,0(r21)
  801410:	00801b04 	movi	r2,108
  801414:	88838f26 	beq	r17,r2,802254 <___vfprintf_internal_r+0x1bf4>
  801418:	84000414 	ori	r16,r16,16
  80141c:	003cf206 	br	8007e8 <__alt_mem_onchip_memory2+0xff7e07e8>
  801420:	8025883a 	mov	r18,r16
  801424:	dc002903 	ldbu	r16,164(sp)
  801428:	e011883a 	mov	r8,fp
  80142c:	84003fcc 	andi	r16,r16,255
  801430:	80053f1e 	bne	r16,zero,802930 <___vfprintf_internal_r+0x22d0>
  801434:	9080080c 	andi	r2,r18,32
  801438:	1002d226 	beq	r2,zero,801f84 <___vfprintf_internal_r+0x1924>
  80143c:	d9002e17 	ldw	r4,184(sp)
  801440:	d9402f17 	ldw	r5,188(sp)
  801444:	20800017 	ldw	r2,0(r4)
  801448:	2807d7fa 	srai	r3,r5,31
  80144c:	21000104 	addi	r4,r4,4
  801450:	d9002e15 	stw	r4,184(sp)
  801454:	11400015 	stw	r5,0(r2)
  801458:	10c00115 	stw	r3,4(r2)
  80145c:	003cb806 	br	800740 <__alt_mem_onchip_memory2+0xff7e0740>
  801460:	d8c02e17 	ldw	r3,184(sp)
  801464:	d9002e17 	ldw	r4,184(sp)
  801468:	8025883a 	mov	r18,r16
  80146c:	18800017 	ldw	r2,0(r3)
  801470:	21000104 	addi	r4,r4,4
  801474:	00c00044 	movi	r3,1
  801478:	e011883a 	mov	r8,fp
  80147c:	d8c02915 	stw	r3,164(sp)
  801480:	d8002785 	stb	zero,158(sp)
  801484:	d8801405 	stb	r2,80(sp)
  801488:	d9002e15 	stw	r4,184(sp)
  80148c:	d8c02b15 	stw	r3,172(sp)
  801490:	d8002a15 	stw	zero,168(sp)
  801494:	d8003215 	stw	zero,200(sp)
  801498:	dc001404 	addi	r16,sp,80
  80149c:	0039883a 	mov	fp,zero
  8014a0:	003e5306 	br	800df0 <__alt_mem_onchip_memory2+0xff7e0df0>
  8014a4:	01002074 	movhi	r4,129
  8014a8:	2101cb04 	addi	r4,r4,1836
  8014ac:	0039883a 	mov	fp,zero
  8014b0:	d9003915 	stw	r4,228(sp)
  8014b4:	04401e04 	movi	r17,120
  8014b8:	003f6906 	br	801260 <__alt_mem_onchip_memory2+0xff7e1260>
  8014bc:	8025883a 	mov	r18,r16
  8014c0:	dc002903 	ldbu	r16,164(sp)
  8014c4:	e011883a 	mov	r8,fp
  8014c8:	84003fcc 	andi	r16,r16,255
  8014cc:	8005081e 	bne	r16,zero,8028f0 <___vfprintf_internal_r+0x2290>
  8014d0:	883d6126 	beq	r17,zero,800a58 <__alt_mem_onchip_memory2+0xff7e0a58>
  8014d4:	00c00044 	movi	r3,1
  8014d8:	d8c02915 	stw	r3,164(sp)
  8014dc:	dc401405 	stb	r17,80(sp)
  8014e0:	d8002785 	stb	zero,158(sp)
  8014e4:	003fe906 	br	80148c <__alt_mem_onchip_memory2+0xff7e148c>
  8014e8:	01402074 	movhi	r5,129
  8014ec:	2941cb04 	addi	r5,r5,1836
  8014f0:	d9403915 	stw	r5,228(sp)
  8014f4:	d8c02e15 	stw	r3,184(sp)
  8014f8:	1025883a 	mov	r18,r2
  8014fc:	04401e04 	movi	r17,120
  801500:	9d84b03a 	or	r2,r19,r22
  801504:	1000fc1e 	bne	r2,zero,8018f8 <___vfprintf_internal_r+0x1298>
  801508:	0039883a 	mov	fp,zero
  80150c:	00800084 	movi	r2,2
  801510:	10803fcc 	andi	r2,r2,255
  801514:	00c00044 	movi	r3,1
  801518:	10c20f26 	beq	r2,r3,801d58 <___vfprintf_internal_r+0x16f8>
  80151c:	00c00084 	movi	r3,2
  801520:	10fd3326 	beq	r2,r3,8009f0 <__alt_mem_onchip_memory2+0xff7e09f0>
  801524:	003e0b06 	br	800d54 <__alt_mem_onchip_memory2+0xff7e0d54>
  801528:	d8c02017 	ldw	r3,128(sp)
  80152c:	003e7106 	br	800ef4 <__alt_mem_onchip_memory2+0xff7e0ef4>
  801530:	00801944 	movi	r2,101
  801534:	14407e0e 	bge	r2,r17,801730 <___vfprintf_internal_r+0x10d0>
  801538:	d9003617 	ldw	r4,216(sp)
  80153c:	d9403817 	ldw	r5,224(sp)
  801540:	000d883a 	mov	r6,zero
  801544:	000f883a 	mov	r7,zero
  801548:	d8c03c15 	stw	r3,240(sp)
  80154c:	da003d15 	stw	r8,244(sp)
  801550:	080bf900 	call	80bf90 <__eqdf2>
  801554:	d8c03c17 	ldw	r3,240(sp)
  801558:	da003d17 	ldw	r8,244(sp)
  80155c:	1000f71e 	bne	r2,zero,80193c <___vfprintf_internal_r+0x12dc>
  801560:	d8801f17 	ldw	r2,124(sp)
  801564:	01002074 	movhi	r4,129
  801568:	2101d204 	addi	r4,r4,1864
  80156c:	18c00044 	addi	r3,r3,1
  801570:	10800044 	addi	r2,r2,1
  801574:	41000015 	stw	r4,0(r8)
  801578:	01000044 	movi	r4,1
  80157c:	41000115 	stw	r4,4(r8)
  801580:	d8c02015 	stw	r3,128(sp)
  801584:	d8801f15 	stw	r2,124(sp)
  801588:	010001c4 	movi	r4,7
  80158c:	2082b816 	blt	r4,r2,802070 <___vfprintf_internal_r+0x1a10>
  801590:	42000204 	addi	r8,r8,8
  801594:	d8802617 	ldw	r2,152(sp)
  801598:	d9403317 	ldw	r5,204(sp)
  80159c:	11400216 	blt	r2,r5,8015a8 <___vfprintf_internal_r+0xf48>
  8015a0:	9080004c 	andi	r2,r18,1
  8015a4:	103eb326 	beq	r2,zero,801074 <__alt_mem_onchip_memory2+0xff7e1074>
  8015a8:	d8803717 	ldw	r2,220(sp)
  8015ac:	d9003417 	ldw	r4,208(sp)
  8015b0:	d9403717 	ldw	r5,220(sp)
  8015b4:	1887883a 	add	r3,r3,r2
  8015b8:	d8801f17 	ldw	r2,124(sp)
  8015bc:	41000015 	stw	r4,0(r8)
  8015c0:	41400115 	stw	r5,4(r8)
  8015c4:	10800044 	addi	r2,r2,1
  8015c8:	d8c02015 	stw	r3,128(sp)
  8015cc:	d8801f15 	stw	r2,124(sp)
  8015d0:	010001c4 	movi	r4,7
  8015d4:	20832916 	blt	r4,r2,80227c <___vfprintf_internal_r+0x1c1c>
  8015d8:	42000204 	addi	r8,r8,8
  8015dc:	d8803317 	ldw	r2,204(sp)
  8015e0:	143fffc4 	addi	r16,r2,-1
  8015e4:	043ea30e 	bge	zero,r16,801074 <__alt_mem_onchip_memory2+0xff7e1074>
  8015e8:	04400404 	movi	r17,16
  8015ec:	d8801f17 	ldw	r2,124(sp)
  8015f0:	8c00880e 	bge	r17,r16,801814 <___vfprintf_internal_r+0x11b4>
  8015f4:	01402074 	movhi	r5,129
  8015f8:	2941d284 	addi	r5,r5,1866
  8015fc:	d9402c15 	stw	r5,176(sp)
  801600:	058001c4 	movi	r22,7
  801604:	dcc02d17 	ldw	r19,180(sp)
  801608:	00000306 	br	801618 <___vfprintf_internal_r+0xfb8>
  80160c:	42000204 	addi	r8,r8,8
  801610:	843ffc04 	addi	r16,r16,-16
  801614:	8c00820e 	bge	r17,r16,801820 <___vfprintf_internal_r+0x11c0>
  801618:	18c00404 	addi	r3,r3,16
  80161c:	10800044 	addi	r2,r2,1
  801620:	45000015 	stw	r20,0(r8)
  801624:	44400115 	stw	r17,4(r8)
  801628:	d8c02015 	stw	r3,128(sp)
  80162c:	d8801f15 	stw	r2,124(sp)
  801630:	b0bff60e 	bge	r22,r2,80160c <__alt_mem_onchip_memory2+0xff7e160c>
  801634:	d9801e04 	addi	r6,sp,120
  801638:	b80b883a 	mov	r5,r23
  80163c:	9809883a 	mov	r4,r19
  801640:	08080300 	call	808030 <__sprint_r>
  801644:	103d0a1e 	bne	r2,zero,800a70 <__alt_mem_onchip_memory2+0xff7e0a70>
  801648:	d8c02017 	ldw	r3,128(sp)
  80164c:	d8801f17 	ldw	r2,124(sp)
  801650:	da000404 	addi	r8,sp,16
  801654:	003fee06 	br	801610 <__alt_mem_onchip_memory2+0xff7e1610>
  801658:	d9403117 	ldw	r5,196(sp)
  80165c:	d8802917 	ldw	r2,164(sp)
  801660:	28adc83a 	sub	r22,r5,r2
  801664:	05be410e 	bge	zero,r22,800f6c <__alt_mem_onchip_memory2+0xff7e0f6c>
  801668:	07000404 	movi	fp,16
  80166c:	d8801f17 	ldw	r2,124(sp)
  801670:	e5838f0e 	bge	fp,r22,8024b0 <___vfprintf_internal_r+0x1e50>
  801674:	01402074 	movhi	r5,129
  801678:	2941d284 	addi	r5,r5,1866
  80167c:	dc403015 	stw	r17,192(sp)
  801680:	d9402c15 	stw	r5,176(sp)
  801684:	b023883a 	mov	r17,r22
  801688:	04c001c4 	movi	r19,7
  80168c:	a82d883a 	mov	r22,r21
  801690:	902b883a 	mov	r21,r18
  801694:	8025883a 	mov	r18,r16
  801698:	dc002d17 	ldw	r16,180(sp)
  80169c:	00000306 	br	8016ac <___vfprintf_internal_r+0x104c>
  8016a0:	8c7ffc04 	addi	r17,r17,-16
  8016a4:	42000204 	addi	r8,r8,8
  8016a8:	e440110e 	bge	fp,r17,8016f0 <___vfprintf_internal_r+0x1090>
  8016ac:	18c00404 	addi	r3,r3,16
  8016b0:	10800044 	addi	r2,r2,1
  8016b4:	45000015 	stw	r20,0(r8)
  8016b8:	47000115 	stw	fp,4(r8)
  8016bc:	d8c02015 	stw	r3,128(sp)
  8016c0:	d8801f15 	stw	r2,124(sp)
  8016c4:	98bff60e 	bge	r19,r2,8016a0 <__alt_mem_onchip_memory2+0xff7e16a0>
  8016c8:	d9801e04 	addi	r6,sp,120
  8016cc:	b80b883a 	mov	r5,r23
  8016d0:	8009883a 	mov	r4,r16
  8016d4:	08080300 	call	808030 <__sprint_r>
  8016d8:	103ce51e 	bne	r2,zero,800a70 <__alt_mem_onchip_memory2+0xff7e0a70>
  8016dc:	8c7ffc04 	addi	r17,r17,-16
  8016e0:	d8c02017 	ldw	r3,128(sp)
  8016e4:	d8801f17 	ldw	r2,124(sp)
  8016e8:	da000404 	addi	r8,sp,16
  8016ec:	e47fef16 	blt	fp,r17,8016ac <__alt_mem_onchip_memory2+0xff7e16ac>
  8016f0:	9021883a 	mov	r16,r18
  8016f4:	a825883a 	mov	r18,r21
  8016f8:	b02b883a 	mov	r21,r22
  8016fc:	882d883a 	mov	r22,r17
  801700:	dc403017 	ldw	r17,192(sp)
  801704:	d9002c17 	ldw	r4,176(sp)
  801708:	1d87883a 	add	r3,r3,r22
  80170c:	10800044 	addi	r2,r2,1
  801710:	41000015 	stw	r4,0(r8)
  801714:	45800115 	stw	r22,4(r8)
  801718:	d8c02015 	stw	r3,128(sp)
  80171c:	d8801f15 	stw	r2,124(sp)
  801720:	010001c4 	movi	r4,7
  801724:	20818e16 	blt	r4,r2,801d60 <___vfprintf_internal_r+0x1700>
  801728:	42000204 	addi	r8,r8,8
  80172c:	003e0f06 	br	800f6c <__alt_mem_onchip_memory2+0xff7e0f6c>
  801730:	d9403317 	ldw	r5,204(sp)
  801734:	00800044 	movi	r2,1
  801738:	18c00044 	addi	r3,r3,1
  80173c:	1141530e 	bge	r2,r5,801c8c <___vfprintf_internal_r+0x162c>
  801740:	dc401f17 	ldw	r17,124(sp)
  801744:	00800044 	movi	r2,1
  801748:	40800115 	stw	r2,4(r8)
  80174c:	8c400044 	addi	r17,r17,1
  801750:	44000015 	stw	r16,0(r8)
  801754:	d8c02015 	stw	r3,128(sp)
  801758:	dc401f15 	stw	r17,124(sp)
  80175c:	008001c4 	movi	r2,7
  801760:	14416b16 	blt	r2,r17,801d10 <___vfprintf_internal_r+0x16b0>
  801764:	42000204 	addi	r8,r8,8
  801768:	d8803717 	ldw	r2,220(sp)
  80176c:	d9003417 	ldw	r4,208(sp)
  801770:	8c400044 	addi	r17,r17,1
  801774:	10c7883a 	add	r3,r2,r3
  801778:	40800115 	stw	r2,4(r8)
  80177c:	41000015 	stw	r4,0(r8)
  801780:	d8c02015 	stw	r3,128(sp)
  801784:	dc401f15 	stw	r17,124(sp)
  801788:	008001c4 	movi	r2,7
  80178c:	14416916 	blt	r2,r17,801d34 <___vfprintf_internal_r+0x16d4>
  801790:	45800204 	addi	r22,r8,8
  801794:	d9003617 	ldw	r4,216(sp)
  801798:	d9403817 	ldw	r5,224(sp)
  80179c:	000d883a 	mov	r6,zero
  8017a0:	000f883a 	mov	r7,zero
  8017a4:	d8c03c15 	stw	r3,240(sp)
  8017a8:	080bf900 	call	80bf90 <__eqdf2>
  8017ac:	d8c03c17 	ldw	r3,240(sp)
  8017b0:	1000bc26 	beq	r2,zero,801aa4 <___vfprintf_internal_r+0x1444>
  8017b4:	d9403317 	ldw	r5,204(sp)
  8017b8:	84000044 	addi	r16,r16,1
  8017bc:	8c400044 	addi	r17,r17,1
  8017c0:	28bfffc4 	addi	r2,r5,-1
  8017c4:	1887883a 	add	r3,r3,r2
  8017c8:	b0800115 	stw	r2,4(r22)
  8017cc:	b4000015 	stw	r16,0(r22)
  8017d0:	d8c02015 	stw	r3,128(sp)
  8017d4:	dc401f15 	stw	r17,124(sp)
  8017d8:	008001c4 	movi	r2,7
  8017dc:	14414316 	blt	r2,r17,801cec <___vfprintf_internal_r+0x168c>
  8017e0:	b5800204 	addi	r22,r22,8
  8017e4:	d9003a17 	ldw	r4,232(sp)
  8017e8:	df0022c4 	addi	fp,sp,139
  8017ec:	8c400044 	addi	r17,r17,1
  8017f0:	20c7883a 	add	r3,r4,r3
  8017f4:	b7000015 	stw	fp,0(r22)
  8017f8:	b1000115 	stw	r4,4(r22)
  8017fc:	d8c02015 	stw	r3,128(sp)
  801800:	dc401f15 	stw	r17,124(sp)
  801804:	008001c4 	movi	r2,7
  801808:	14400e16 	blt	r2,r17,801844 <___vfprintf_internal_r+0x11e4>
  80180c:	b2000204 	addi	r8,r22,8
  801810:	003e1806 	br	801074 <__alt_mem_onchip_memory2+0xff7e1074>
  801814:	01002074 	movhi	r4,129
  801818:	2101d284 	addi	r4,r4,1866
  80181c:	d9002c15 	stw	r4,176(sp)
  801820:	d9002c17 	ldw	r4,176(sp)
  801824:	1c07883a 	add	r3,r3,r16
  801828:	44000115 	stw	r16,4(r8)
  80182c:	41000015 	stw	r4,0(r8)
  801830:	10800044 	addi	r2,r2,1
  801834:	d8c02015 	stw	r3,128(sp)
  801838:	d8801f15 	stw	r2,124(sp)
  80183c:	010001c4 	movi	r4,7
  801840:	20be0b0e 	bge	r4,r2,801070 <__alt_mem_onchip_memory2+0xff7e1070>
  801844:	d9002d17 	ldw	r4,180(sp)
  801848:	d9801e04 	addi	r6,sp,120
  80184c:	b80b883a 	mov	r5,r23
  801850:	08080300 	call	808030 <__sprint_r>
  801854:	103c861e 	bne	r2,zero,800a70 <__alt_mem_onchip_memory2+0xff7e0a70>
  801858:	d8c02017 	ldw	r3,128(sp)
  80185c:	da000404 	addi	r8,sp,16
  801860:	003e0406 	br	801074 <__alt_mem_onchip_memory2+0xff7e1074>
  801864:	d9002d17 	ldw	r4,180(sp)
  801868:	d9801e04 	addi	r6,sp,120
  80186c:	b80b883a 	mov	r5,r23
  801870:	08080300 	call	808030 <__sprint_r>
  801874:	103e3b26 	beq	r2,zero,801164 <__alt_mem_onchip_memory2+0xff7e1164>
  801878:	003c7d06 	br	800a70 <__alt_mem_onchip_memory2+0xff7e0a70>
  80187c:	d9002d17 	ldw	r4,180(sp)
  801880:	d9801e04 	addi	r6,sp,120
  801884:	b80b883a 	mov	r5,r23
  801888:	08080300 	call	808030 <__sprint_r>
  80188c:	103c781e 	bne	r2,zero,800a70 <__alt_mem_onchip_memory2+0xff7e0a70>
  801890:	d8c02017 	ldw	r3,128(sp)
  801894:	da000404 	addi	r8,sp,16
  801898:	003de906 	br	801040 <__alt_mem_onchip_memory2+0xff7e1040>
  80189c:	d9002d17 	ldw	r4,180(sp)
  8018a0:	d9801e04 	addi	r6,sp,120
  8018a4:	b80b883a 	mov	r5,r23
  8018a8:	08080300 	call	808030 <__sprint_r>
  8018ac:	103c701e 	bne	r2,zero,800a70 <__alt_mem_onchip_memory2+0xff7e0a70>
  8018b0:	d8c02017 	ldw	r3,128(sp)
  8018b4:	da000404 	addi	r8,sp,16
  8018b8:	003d9b06 	br	800f28 <__alt_mem_onchip_memory2+0xff7e0f28>
  8018bc:	d9002d17 	ldw	r4,180(sp)
  8018c0:	d9801e04 	addi	r6,sp,120
  8018c4:	b80b883a 	mov	r5,r23
  8018c8:	08080300 	call	808030 <__sprint_r>
  8018cc:	103c681e 	bne	r2,zero,800a70 <__alt_mem_onchip_memory2+0xff7e0a70>
  8018d0:	d8c02017 	ldw	r3,128(sp)
  8018d4:	da000404 	addi	r8,sp,16
  8018d8:	003da106 	br	800f60 <__alt_mem_onchip_memory2+0xff7e0f60>
  8018dc:	d9402a17 	ldw	r5,168(sp)
  8018e0:	d8002785 	stb	zero,158(sp)
  8018e4:	283f0616 	blt	r5,zero,801500 <__alt_mem_onchip_memory2+0xff7e1500>
  8018e8:	00ffdfc4 	movi	r3,-129
  8018ec:	9d84b03a 	or	r2,r19,r22
  8018f0:	90e4703a 	and	r18,r18,r3
  8018f4:	103c3b26 	beq	r2,zero,8009e4 <__alt_mem_onchip_memory2+0xff7e09e4>
  8018f8:	0039883a 	mov	fp,zero
  8018fc:	003e5806 	br	801260 <__alt_mem_onchip_memory2+0xff7e1260>
  801900:	9080040c 	andi	r2,r18,16
  801904:	1001b326 	beq	r2,zero,801fd4 <___vfprintf_internal_r+0x1974>
  801908:	d8c02e17 	ldw	r3,184(sp)
  80190c:	d9002a17 	ldw	r4,168(sp)
  801910:	d8002785 	stb	zero,158(sp)
  801914:	18800104 	addi	r2,r3,4
  801918:	1cc00017 	ldw	r19,0(r3)
  80191c:	002d883a 	mov	r22,zero
  801920:	2001b516 	blt	r4,zero,801ff8 <___vfprintf_internal_r+0x1998>
  801924:	00ffdfc4 	movi	r3,-129
  801928:	d8802e15 	stw	r2,184(sp)
  80192c:	90e4703a 	and	r18,r18,r3
  801930:	983d0526 	beq	r19,zero,800d48 <__alt_mem_onchip_memory2+0xff7e0d48>
  801934:	0039883a 	mov	fp,zero
  801938:	003d0806 	br	800d5c <__alt_mem_onchip_memory2+0xff7e0d5c>
  80193c:	dc402617 	ldw	r17,152(sp)
  801940:	0441d30e 	bge	zero,r17,802090 <___vfprintf_internal_r+0x1a30>
  801944:	dc403217 	ldw	r17,200(sp)
  801948:	d8803317 	ldw	r2,204(sp)
  80194c:	1440010e 	bge	r2,r17,801954 <___vfprintf_internal_r+0x12f4>
  801950:	1023883a 	mov	r17,r2
  801954:	04400a0e 	bge	zero,r17,801980 <___vfprintf_internal_r+0x1320>
  801958:	d8801f17 	ldw	r2,124(sp)
  80195c:	1c47883a 	add	r3,r3,r17
  801960:	44000015 	stw	r16,0(r8)
  801964:	10800044 	addi	r2,r2,1
  801968:	44400115 	stw	r17,4(r8)
  80196c:	d8c02015 	stw	r3,128(sp)
  801970:	d8801f15 	stw	r2,124(sp)
  801974:	010001c4 	movi	r4,7
  801978:	20826516 	blt	r4,r2,802310 <___vfprintf_internal_r+0x1cb0>
  80197c:	42000204 	addi	r8,r8,8
  801980:	88026116 	blt	r17,zero,802308 <___vfprintf_internal_r+0x1ca8>
  801984:	d9003217 	ldw	r4,200(sp)
  801988:	2463c83a 	sub	r17,r4,r17
  80198c:	04407b0e 	bge	zero,r17,801b7c <___vfprintf_internal_r+0x151c>
  801990:	05800404 	movi	r22,16
  801994:	d8801f17 	ldw	r2,124(sp)
  801998:	b4419d0e 	bge	r22,r17,802010 <___vfprintf_internal_r+0x19b0>
  80199c:	01002074 	movhi	r4,129
  8019a0:	2101d284 	addi	r4,r4,1866
  8019a4:	d9002c15 	stw	r4,176(sp)
  8019a8:	070001c4 	movi	fp,7
  8019ac:	dcc02d17 	ldw	r19,180(sp)
  8019b0:	00000306 	br	8019c0 <___vfprintf_internal_r+0x1360>
  8019b4:	42000204 	addi	r8,r8,8
  8019b8:	8c7ffc04 	addi	r17,r17,-16
  8019bc:	b441970e 	bge	r22,r17,80201c <___vfprintf_internal_r+0x19bc>
  8019c0:	18c00404 	addi	r3,r3,16
  8019c4:	10800044 	addi	r2,r2,1
  8019c8:	45000015 	stw	r20,0(r8)
  8019cc:	45800115 	stw	r22,4(r8)
  8019d0:	d8c02015 	stw	r3,128(sp)
  8019d4:	d8801f15 	stw	r2,124(sp)
  8019d8:	e0bff60e 	bge	fp,r2,8019b4 <__alt_mem_onchip_memory2+0xff7e19b4>
  8019dc:	d9801e04 	addi	r6,sp,120
  8019e0:	b80b883a 	mov	r5,r23
  8019e4:	9809883a 	mov	r4,r19
  8019e8:	08080300 	call	808030 <__sprint_r>
  8019ec:	103c201e 	bne	r2,zero,800a70 <__alt_mem_onchip_memory2+0xff7e0a70>
  8019f0:	d8c02017 	ldw	r3,128(sp)
  8019f4:	d8801f17 	ldw	r2,124(sp)
  8019f8:	da000404 	addi	r8,sp,16
  8019fc:	003fee06 	br	8019b8 <__alt_mem_onchip_memory2+0xff7e19b8>
  801a00:	d9002d17 	ldw	r4,180(sp)
  801a04:	d9801e04 	addi	r6,sp,120
  801a08:	b80b883a 	mov	r5,r23
  801a0c:	08080300 	call	808030 <__sprint_r>
  801a10:	103c171e 	bne	r2,zero,800a70 <__alt_mem_onchip_memory2+0xff7e0a70>
  801a14:	d8c02017 	ldw	r3,128(sp)
  801a18:	df002787 	ldb	fp,158(sp)
  801a1c:	da000404 	addi	r8,sp,16
  801a20:	003d3406 	br	800ef4 <__alt_mem_onchip_memory2+0xff7e0ef4>
  801a24:	9080040c 	andi	r2,r18,16
  801a28:	10016126 	beq	r2,zero,801fb0 <___vfprintf_internal_r+0x1950>
  801a2c:	d9402e17 	ldw	r5,184(sp)
  801a30:	2cc00017 	ldw	r19,0(r5)
  801a34:	29400104 	addi	r5,r5,4
  801a38:	d9402e15 	stw	r5,184(sp)
  801a3c:	982dd7fa 	srai	r22,r19,31
  801a40:	b005883a 	mov	r2,r22
  801a44:	003c5a06 	br	800bb0 <__alt_mem_onchip_memory2+0xff7e0bb0>
  801a48:	9080040c 	andi	r2,r18,16
  801a4c:	10003526 	beq	r2,zero,801b24 <___vfprintf_internal_r+0x14c4>
  801a50:	d8c02e17 	ldw	r3,184(sp)
  801a54:	d9002a17 	ldw	r4,168(sp)
  801a58:	d8002785 	stb	zero,158(sp)
  801a5c:	18800104 	addi	r2,r3,4
  801a60:	1cc00017 	ldw	r19,0(r3)
  801a64:	002d883a 	mov	r22,zero
  801a68:	20003716 	blt	r4,zero,801b48 <___vfprintf_internal_r+0x14e8>
  801a6c:	00ffdfc4 	movi	r3,-129
  801a70:	d8802e15 	stw	r2,184(sp)
  801a74:	90e4703a 	and	r18,r18,r3
  801a78:	0039883a 	mov	fp,zero
  801a7c:	983dd426 	beq	r19,zero,8011d0 <__alt_mem_onchip_memory2+0xff7e11d0>
  801a80:	00800244 	movi	r2,9
  801a84:	14fc5336 	bltu	r2,r19,800bd4 <__alt_mem_onchip_memory2+0xff7e0bd4>
  801a88:	d8c02817 	ldw	r3,160(sp)
  801a8c:	dc001dc4 	addi	r16,sp,119
  801a90:	9cc00c04 	addi	r19,r19,48
  801a94:	1c07c83a 	sub	r3,r3,r16
  801a98:	dcc01dc5 	stb	r19,119(sp)
  801a9c:	d8c02b15 	stw	r3,172(sp)
  801aa0:	003cc606 	br	800dbc <__alt_mem_onchip_memory2+0xff7e0dbc>
  801aa4:	d8803317 	ldw	r2,204(sp)
  801aa8:	143fffc4 	addi	r16,r2,-1
  801aac:	043f4d0e 	bge	zero,r16,8017e4 <__alt_mem_onchip_memory2+0xff7e17e4>
  801ab0:	07000404 	movi	fp,16
  801ab4:	e400810e 	bge	fp,r16,801cbc <___vfprintf_internal_r+0x165c>
  801ab8:	01402074 	movhi	r5,129
  801abc:	2941d284 	addi	r5,r5,1866
  801ac0:	d9402c15 	stw	r5,176(sp)
  801ac4:	01c001c4 	movi	r7,7
  801ac8:	dcc02d17 	ldw	r19,180(sp)
  801acc:	00000306 	br	801adc <___vfprintf_internal_r+0x147c>
  801ad0:	b5800204 	addi	r22,r22,8
  801ad4:	843ffc04 	addi	r16,r16,-16
  801ad8:	e4007b0e 	bge	fp,r16,801cc8 <___vfprintf_internal_r+0x1668>
  801adc:	18c00404 	addi	r3,r3,16
  801ae0:	8c400044 	addi	r17,r17,1
  801ae4:	b5000015 	stw	r20,0(r22)
  801ae8:	b7000115 	stw	fp,4(r22)
  801aec:	d8c02015 	stw	r3,128(sp)
  801af0:	dc401f15 	stw	r17,124(sp)
  801af4:	3c7ff60e 	bge	r7,r17,801ad0 <__alt_mem_onchip_memory2+0xff7e1ad0>
  801af8:	d9801e04 	addi	r6,sp,120
  801afc:	b80b883a 	mov	r5,r23
  801b00:	9809883a 	mov	r4,r19
  801b04:	d9c03c15 	stw	r7,240(sp)
  801b08:	08080300 	call	808030 <__sprint_r>
  801b0c:	d9c03c17 	ldw	r7,240(sp)
  801b10:	103bd71e 	bne	r2,zero,800a70 <__alt_mem_onchip_memory2+0xff7e0a70>
  801b14:	d8c02017 	ldw	r3,128(sp)
  801b18:	dc401f17 	ldw	r17,124(sp)
  801b1c:	dd800404 	addi	r22,sp,16
  801b20:	003fec06 	br	801ad4 <__alt_mem_onchip_memory2+0xff7e1ad4>
  801b24:	9080100c 	andi	r2,r18,64
  801b28:	d8002785 	stb	zero,158(sp)
  801b2c:	10010e26 	beq	r2,zero,801f68 <___vfprintf_internal_r+0x1908>
  801b30:	d9402e17 	ldw	r5,184(sp)
  801b34:	d8c02a17 	ldw	r3,168(sp)
  801b38:	002d883a 	mov	r22,zero
  801b3c:	28800104 	addi	r2,r5,4
  801b40:	2cc0000b 	ldhu	r19,0(r5)
  801b44:	183fc90e 	bge	r3,zero,801a6c <__alt_mem_onchip_memory2+0xff7e1a6c>
  801b48:	d8802e15 	stw	r2,184(sp)
  801b4c:	0039883a 	mov	fp,zero
  801b50:	9d84b03a 	or	r2,r19,r22
  801b54:	103c1e1e 	bne	r2,zero,800bd0 <__alt_mem_onchip_memory2+0xff7e0bd0>
  801b58:	00800044 	movi	r2,1
  801b5c:	003e6c06 	br	801510 <__alt_mem_onchip_memory2+0xff7e1510>
  801b60:	d9002d17 	ldw	r4,180(sp)
  801b64:	d9801e04 	addi	r6,sp,120
  801b68:	b80b883a 	mov	r5,r23
  801b6c:	08080300 	call	808030 <__sprint_r>
  801b70:	103bbf1e 	bne	r2,zero,800a70 <__alt_mem_onchip_memory2+0xff7e0a70>
  801b74:	d8c02017 	ldw	r3,128(sp)
  801b78:	da000404 	addi	r8,sp,16
  801b7c:	d9003217 	ldw	r4,200(sp)
  801b80:	d8802617 	ldw	r2,152(sp)
  801b84:	d9403317 	ldw	r5,204(sp)
  801b88:	8123883a 	add	r17,r16,r4
  801b8c:	11400216 	blt	r2,r5,801b98 <___vfprintf_internal_r+0x1538>
  801b90:	9100004c 	andi	r4,r18,1
  801b94:	20000d26 	beq	r4,zero,801bcc <___vfprintf_internal_r+0x156c>
  801b98:	d9003717 	ldw	r4,220(sp)
  801b9c:	d9403417 	ldw	r5,208(sp)
  801ba0:	1907883a 	add	r3,r3,r4
  801ba4:	d9001f17 	ldw	r4,124(sp)
  801ba8:	41400015 	stw	r5,0(r8)
  801bac:	d9403717 	ldw	r5,220(sp)
  801bb0:	21000044 	addi	r4,r4,1
  801bb4:	d8c02015 	stw	r3,128(sp)
  801bb8:	41400115 	stw	r5,4(r8)
  801bbc:	d9001f15 	stw	r4,124(sp)
  801bc0:	014001c4 	movi	r5,7
  801bc4:	2901e816 	blt	r5,r4,802368 <___vfprintf_internal_r+0x1d08>
  801bc8:	42000204 	addi	r8,r8,8
  801bcc:	d9003317 	ldw	r4,204(sp)
  801bd0:	8121883a 	add	r16,r16,r4
  801bd4:	2085c83a 	sub	r2,r4,r2
  801bd8:	8461c83a 	sub	r16,r16,r17
  801bdc:	1400010e 	bge	r2,r16,801be4 <___vfprintf_internal_r+0x1584>
  801be0:	1021883a 	mov	r16,r2
  801be4:	04000a0e 	bge	zero,r16,801c10 <___vfprintf_internal_r+0x15b0>
  801be8:	d9001f17 	ldw	r4,124(sp)
  801bec:	1c07883a 	add	r3,r3,r16
  801bf0:	44400015 	stw	r17,0(r8)
  801bf4:	21000044 	addi	r4,r4,1
  801bf8:	44000115 	stw	r16,4(r8)
  801bfc:	d8c02015 	stw	r3,128(sp)
  801c00:	d9001f15 	stw	r4,124(sp)
  801c04:	014001c4 	movi	r5,7
  801c08:	2901fb16 	blt	r5,r4,8023f8 <___vfprintf_internal_r+0x1d98>
  801c0c:	42000204 	addi	r8,r8,8
  801c10:	8001f716 	blt	r16,zero,8023f0 <___vfprintf_internal_r+0x1d90>
  801c14:	1421c83a 	sub	r16,r2,r16
  801c18:	043d160e 	bge	zero,r16,801074 <__alt_mem_onchip_memory2+0xff7e1074>
  801c1c:	04400404 	movi	r17,16
  801c20:	d8801f17 	ldw	r2,124(sp)
  801c24:	8c3efb0e 	bge	r17,r16,801814 <__alt_mem_onchip_memory2+0xff7e1814>
  801c28:	01402074 	movhi	r5,129
  801c2c:	2941d284 	addi	r5,r5,1866
  801c30:	d9402c15 	stw	r5,176(sp)
  801c34:	058001c4 	movi	r22,7
  801c38:	dcc02d17 	ldw	r19,180(sp)
  801c3c:	00000306 	br	801c4c <___vfprintf_internal_r+0x15ec>
  801c40:	42000204 	addi	r8,r8,8
  801c44:	843ffc04 	addi	r16,r16,-16
  801c48:	8c3ef50e 	bge	r17,r16,801820 <__alt_mem_onchip_memory2+0xff7e1820>
  801c4c:	18c00404 	addi	r3,r3,16
  801c50:	10800044 	addi	r2,r2,1
  801c54:	45000015 	stw	r20,0(r8)
  801c58:	44400115 	stw	r17,4(r8)
  801c5c:	d8c02015 	stw	r3,128(sp)
  801c60:	d8801f15 	stw	r2,124(sp)
  801c64:	b0bff60e 	bge	r22,r2,801c40 <__alt_mem_onchip_memory2+0xff7e1c40>
  801c68:	d9801e04 	addi	r6,sp,120
  801c6c:	b80b883a 	mov	r5,r23
  801c70:	9809883a 	mov	r4,r19
  801c74:	08080300 	call	808030 <__sprint_r>
  801c78:	103b7d1e 	bne	r2,zero,800a70 <__alt_mem_onchip_memory2+0xff7e0a70>
  801c7c:	d8c02017 	ldw	r3,128(sp)
  801c80:	d8801f17 	ldw	r2,124(sp)
  801c84:	da000404 	addi	r8,sp,16
  801c88:	003fee06 	br	801c44 <__alt_mem_onchip_memory2+0xff7e1c44>
  801c8c:	9088703a 	and	r4,r18,r2
  801c90:	203eab1e 	bne	r4,zero,801740 <__alt_mem_onchip_memory2+0xff7e1740>
  801c94:	dc401f17 	ldw	r17,124(sp)
  801c98:	40800115 	stw	r2,4(r8)
  801c9c:	44000015 	stw	r16,0(r8)
  801ca0:	8c400044 	addi	r17,r17,1
  801ca4:	d8c02015 	stw	r3,128(sp)
  801ca8:	dc401f15 	stw	r17,124(sp)
  801cac:	008001c4 	movi	r2,7
  801cb0:	14400e16 	blt	r2,r17,801cec <___vfprintf_internal_r+0x168c>
  801cb4:	45800204 	addi	r22,r8,8
  801cb8:	003eca06 	br	8017e4 <__alt_mem_onchip_memory2+0xff7e17e4>
  801cbc:	01002074 	movhi	r4,129
  801cc0:	2101d284 	addi	r4,r4,1866
  801cc4:	d9002c15 	stw	r4,176(sp)
  801cc8:	d8802c17 	ldw	r2,176(sp)
  801ccc:	1c07883a 	add	r3,r3,r16
  801cd0:	8c400044 	addi	r17,r17,1
  801cd4:	b0800015 	stw	r2,0(r22)
  801cd8:	b4000115 	stw	r16,4(r22)
  801cdc:	d8c02015 	stw	r3,128(sp)
  801ce0:	dc401f15 	stw	r17,124(sp)
  801ce4:	008001c4 	movi	r2,7
  801ce8:	147ebd0e 	bge	r2,r17,8017e0 <__alt_mem_onchip_memory2+0xff7e17e0>
  801cec:	d9002d17 	ldw	r4,180(sp)
  801cf0:	d9801e04 	addi	r6,sp,120
  801cf4:	b80b883a 	mov	r5,r23
  801cf8:	08080300 	call	808030 <__sprint_r>
  801cfc:	103b5c1e 	bne	r2,zero,800a70 <__alt_mem_onchip_memory2+0xff7e0a70>
  801d00:	d8c02017 	ldw	r3,128(sp)
  801d04:	dc401f17 	ldw	r17,124(sp)
  801d08:	dd800404 	addi	r22,sp,16
  801d0c:	003eb506 	br	8017e4 <__alt_mem_onchip_memory2+0xff7e17e4>
  801d10:	d9002d17 	ldw	r4,180(sp)
  801d14:	d9801e04 	addi	r6,sp,120
  801d18:	b80b883a 	mov	r5,r23
  801d1c:	08080300 	call	808030 <__sprint_r>
  801d20:	103b531e 	bne	r2,zero,800a70 <__alt_mem_onchip_memory2+0xff7e0a70>
  801d24:	d8c02017 	ldw	r3,128(sp)
  801d28:	dc401f17 	ldw	r17,124(sp)
  801d2c:	da000404 	addi	r8,sp,16
  801d30:	003e8d06 	br	801768 <__alt_mem_onchip_memory2+0xff7e1768>
  801d34:	d9002d17 	ldw	r4,180(sp)
  801d38:	d9801e04 	addi	r6,sp,120
  801d3c:	b80b883a 	mov	r5,r23
  801d40:	08080300 	call	808030 <__sprint_r>
  801d44:	103b4a1e 	bne	r2,zero,800a70 <__alt_mem_onchip_memory2+0xff7e0a70>
  801d48:	d8c02017 	ldw	r3,128(sp)
  801d4c:	dc401f17 	ldw	r17,124(sp)
  801d50:	dd800404 	addi	r22,sp,16
  801d54:	003e8f06 	br	801794 <__alt_mem_onchip_memory2+0xff7e1794>
  801d58:	0027883a 	mov	r19,zero
  801d5c:	003f4a06 	br	801a88 <__alt_mem_onchip_memory2+0xff7e1a88>
  801d60:	d9002d17 	ldw	r4,180(sp)
  801d64:	d9801e04 	addi	r6,sp,120
  801d68:	b80b883a 	mov	r5,r23
  801d6c:	08080300 	call	808030 <__sprint_r>
  801d70:	103b3f1e 	bne	r2,zero,800a70 <__alt_mem_onchip_memory2+0xff7e0a70>
  801d74:	d8c02017 	ldw	r3,128(sp)
  801d78:	da000404 	addi	r8,sp,16
  801d7c:	003c7b06 	br	800f6c <__alt_mem_onchip_memory2+0xff7e0f6c>
  801d80:	d9402a17 	ldw	r5,168(sp)
  801d84:	04e7c83a 	sub	r19,zero,r19
  801d88:	07000b44 	movi	fp,45
  801d8c:	9804c03a 	cmpne	r2,r19,zero
  801d90:	05adc83a 	sub	r22,zero,r22
  801d94:	df002785 	stb	fp,158(sp)
  801d98:	b0adc83a 	sub	r22,r22,r2
  801d9c:	28017b16 	blt	r5,zero,80238c <___vfprintf_internal_r+0x1d2c>
  801da0:	00bfdfc4 	movi	r2,-129
  801da4:	90a4703a 	and	r18,r18,r2
  801da8:	003b8906 	br	800bd0 <__alt_mem_onchip_memory2+0xff7e0bd0>
  801dac:	d9003617 	ldw	r4,216(sp)
  801db0:	d9403817 	ldw	r5,224(sp)
  801db4:	da003d15 	stw	r8,244(sp)
  801db8:	0807c540 	call	807c54 <__fpclassifyd>
  801dbc:	da003d17 	ldw	r8,244(sp)
  801dc0:	1000f026 	beq	r2,zero,802184 <___vfprintf_internal_r+0x1b24>
  801dc4:	d9002a17 	ldw	r4,168(sp)
  801dc8:	05bff7c4 	movi	r22,-33
  801dcc:	00bfffc4 	movi	r2,-1
  801dd0:	8dac703a 	and	r22,r17,r22
  801dd4:	20820026 	beq	r4,r2,8025d8 <___vfprintf_internal_r+0x1f78>
  801dd8:	008011c4 	movi	r2,71
  801ddc:	b081f726 	beq	r22,r2,8025bc <___vfprintf_internal_r+0x1f5c>
  801de0:	d9003817 	ldw	r4,224(sp)
  801de4:	90c04014 	ori	r3,r18,256
  801de8:	d8c02c15 	stw	r3,176(sp)
  801dec:	20021516 	blt	r4,zero,802644 <___vfprintf_internal_r+0x1fe4>
  801df0:	dcc03817 	ldw	r19,224(sp)
  801df4:	d8002905 	stb	zero,164(sp)
  801df8:	00801984 	movi	r2,102
  801dfc:	8881f926 	beq	r17,r2,8025e4 <___vfprintf_internal_r+0x1f84>
  801e00:	00801184 	movi	r2,70
  801e04:	88821c26 	beq	r17,r2,802678 <___vfprintf_internal_r+0x2018>
  801e08:	00801144 	movi	r2,69
  801e0c:	b081ef26 	beq	r22,r2,8025cc <___vfprintf_internal_r+0x1f6c>
  801e10:	d8c02a17 	ldw	r3,168(sp)
  801e14:	d8802104 	addi	r2,sp,132
  801e18:	d8800315 	stw	r2,12(sp)
  801e1c:	d9403617 	ldw	r5,216(sp)
  801e20:	d8802504 	addi	r2,sp,148
  801e24:	d9002d17 	ldw	r4,180(sp)
  801e28:	d8800215 	stw	r2,8(sp)
  801e2c:	d8802604 	addi	r2,sp,152
  801e30:	d8c00015 	stw	r3,0(sp)
  801e34:	d8800115 	stw	r2,4(sp)
  801e38:	01c00084 	movi	r7,2
  801e3c:	980d883a 	mov	r6,r19
  801e40:	d8c03c15 	stw	r3,240(sp)
  801e44:	da003d15 	stw	r8,244(sp)
  801e48:	0802d900 	call	802d90 <_dtoa_r>
  801e4c:	1021883a 	mov	r16,r2
  801e50:	008019c4 	movi	r2,103
  801e54:	d8c03c17 	ldw	r3,240(sp)
  801e58:	da003d17 	ldw	r8,244(sp)
  801e5c:	88817126 	beq	r17,r2,802424 <___vfprintf_internal_r+0x1dc4>
  801e60:	008011c4 	movi	r2,71
  801e64:	88829126 	beq	r17,r2,8028ac <___vfprintf_internal_r+0x224c>
  801e68:	80f9883a 	add	fp,r16,r3
  801e6c:	d9003617 	ldw	r4,216(sp)
  801e70:	000d883a 	mov	r6,zero
  801e74:	000f883a 	mov	r7,zero
  801e78:	980b883a 	mov	r5,r19
  801e7c:	da003d15 	stw	r8,244(sp)
  801e80:	080bf900 	call	80bf90 <__eqdf2>
  801e84:	da003d17 	ldw	r8,244(sp)
  801e88:	10018d26 	beq	r2,zero,8024c0 <___vfprintf_internal_r+0x1e60>
  801e8c:	d8802117 	ldw	r2,132(sp)
  801e90:	1700062e 	bgeu	r2,fp,801eac <___vfprintf_internal_r+0x184c>
  801e94:	01000c04 	movi	r4,48
  801e98:	10c00044 	addi	r3,r2,1
  801e9c:	d8c02115 	stw	r3,132(sp)
  801ea0:	11000005 	stb	r4,0(r2)
  801ea4:	d8802117 	ldw	r2,132(sp)
  801ea8:	173ffb36 	bltu	r2,fp,801e98 <__alt_mem_onchip_memory2+0xff7e1e98>
  801eac:	1405c83a 	sub	r2,r2,r16
  801eb0:	d8803315 	stw	r2,204(sp)
  801eb4:	008011c4 	movi	r2,71
  801eb8:	b0817626 	beq	r22,r2,802494 <___vfprintf_internal_r+0x1e34>
  801ebc:	00801944 	movi	r2,101
  801ec0:	1442800e 	bge	r2,r17,8028c4 <___vfprintf_internal_r+0x2264>
  801ec4:	d8c02617 	ldw	r3,152(sp)
  801ec8:	00801984 	movi	r2,102
  801ecc:	d8c03215 	stw	r3,200(sp)
  801ed0:	8881fe26 	beq	r17,r2,8026cc <___vfprintf_internal_r+0x206c>
  801ed4:	d8c03217 	ldw	r3,200(sp)
  801ed8:	d9003317 	ldw	r4,204(sp)
  801edc:	1901dd16 	blt	r3,r4,802654 <___vfprintf_internal_r+0x1ff4>
  801ee0:	9480004c 	andi	r18,r18,1
  801ee4:	90022b1e 	bne	r18,zero,802794 <___vfprintf_internal_r+0x2134>
  801ee8:	1805883a 	mov	r2,r3
  801eec:	18028316 	blt	r3,zero,8028fc <___vfprintf_internal_r+0x229c>
  801ef0:	d8c03217 	ldw	r3,200(sp)
  801ef4:	044019c4 	movi	r17,103
  801ef8:	d8c02b15 	stw	r3,172(sp)
  801efc:	df002907 	ldb	fp,164(sp)
  801f00:	e001531e 	bne	fp,zero,802450 <___vfprintf_internal_r+0x1df0>
  801f04:	df002783 	ldbu	fp,158(sp)
  801f08:	d8802915 	stw	r2,164(sp)
  801f0c:	dc802c17 	ldw	r18,176(sp)
  801f10:	d8002a15 	stw	zero,168(sp)
  801f14:	003baf06 	br	800dd4 <__alt_mem_onchip_memory2+0xff7e0dd4>
  801f18:	d8c02e17 	ldw	r3,184(sp)
  801f1c:	d9002e17 	ldw	r4,184(sp)
  801f20:	d9402e17 	ldw	r5,184(sp)
  801f24:	18c00017 	ldw	r3,0(r3)
  801f28:	21000117 	ldw	r4,4(r4)
  801f2c:	29400204 	addi	r5,r5,8
  801f30:	d8c03615 	stw	r3,216(sp)
  801f34:	d9003815 	stw	r4,224(sp)
  801f38:	d9402e15 	stw	r5,184(sp)
  801f3c:	003b5006 	br	800c80 <__alt_mem_onchip_memory2+0xff7e0c80>
  801f40:	ac400007 	ldb	r17,0(r21)
  801f44:	003a2806 	br	8007e8 <__alt_mem_onchip_memory2+0xff7e07e8>
  801f48:	9080100c 	andi	r2,r18,64
  801f4c:	1000a826 	beq	r2,zero,8021f0 <___vfprintf_internal_r+0x1b90>
  801f50:	d8c02e17 	ldw	r3,184(sp)
  801f54:	002d883a 	mov	r22,zero
  801f58:	1cc0000b 	ldhu	r19,0(r3)
  801f5c:	18c00104 	addi	r3,r3,4
  801f60:	d8c02e15 	stw	r3,184(sp)
  801f64:	003caf06 	br	801224 <__alt_mem_onchip_memory2+0xff7e1224>
  801f68:	d9002e17 	ldw	r4,184(sp)
  801f6c:	d9402a17 	ldw	r5,168(sp)
  801f70:	002d883a 	mov	r22,zero
  801f74:	20800104 	addi	r2,r4,4
  801f78:	24c00017 	ldw	r19,0(r4)
  801f7c:	283ebb0e 	bge	r5,zero,801a6c <__alt_mem_onchip_memory2+0xff7e1a6c>
  801f80:	003ef106 	br	801b48 <__alt_mem_onchip_memory2+0xff7e1b48>
  801f84:	9080040c 	andi	r2,r18,16
  801f88:	1000921e 	bne	r2,zero,8021d4 <___vfprintf_internal_r+0x1b74>
  801f8c:	9480100c 	andi	r18,r18,64
  801f90:	90013926 	beq	r18,zero,802478 <___vfprintf_internal_r+0x1e18>
  801f94:	d9402e17 	ldw	r5,184(sp)
  801f98:	d8c02f17 	ldw	r3,188(sp)
  801f9c:	28800017 	ldw	r2,0(r5)
  801fa0:	29400104 	addi	r5,r5,4
  801fa4:	d9402e15 	stw	r5,184(sp)
  801fa8:	10c0000d 	sth	r3,0(r2)
  801fac:	0039e406 	br	800740 <__alt_mem_onchip_memory2+0xff7e0740>
  801fb0:	9080100c 	andi	r2,r18,64
  801fb4:	10008026 	beq	r2,zero,8021b8 <___vfprintf_internal_r+0x1b58>
  801fb8:	d8802e17 	ldw	r2,184(sp)
  801fbc:	14c0000f 	ldh	r19,0(r2)
  801fc0:	10800104 	addi	r2,r2,4
  801fc4:	d8802e15 	stw	r2,184(sp)
  801fc8:	982dd7fa 	srai	r22,r19,31
  801fcc:	b005883a 	mov	r2,r22
  801fd0:	003af706 	br	800bb0 <__alt_mem_onchip_memory2+0xff7e0bb0>
  801fd4:	9080100c 	andi	r2,r18,64
  801fd8:	d8002785 	stb	zero,158(sp)
  801fdc:	10008a1e 	bne	r2,zero,802208 <___vfprintf_internal_r+0x1ba8>
  801fe0:	d9002e17 	ldw	r4,184(sp)
  801fe4:	d9402a17 	ldw	r5,168(sp)
  801fe8:	002d883a 	mov	r22,zero
  801fec:	20800104 	addi	r2,r4,4
  801ff0:	24c00017 	ldw	r19,0(r4)
  801ff4:	283e4b0e 	bge	r5,zero,801924 <__alt_mem_onchip_memory2+0xff7e1924>
  801ff8:	9d86b03a 	or	r3,r19,r22
  801ffc:	d8802e15 	stw	r2,184(sp)
  802000:	183e4c1e 	bne	r3,zero,801934 <__alt_mem_onchip_memory2+0xff7e1934>
  802004:	0039883a 	mov	fp,zero
  802008:	0005883a 	mov	r2,zero
  80200c:	003d4006 	br	801510 <__alt_mem_onchip_memory2+0xff7e1510>
  802010:	01402074 	movhi	r5,129
  802014:	2941d284 	addi	r5,r5,1866
  802018:	d9402c15 	stw	r5,176(sp)
  80201c:	d9402c17 	ldw	r5,176(sp)
  802020:	1c47883a 	add	r3,r3,r17
  802024:	10800044 	addi	r2,r2,1
  802028:	41400015 	stw	r5,0(r8)
  80202c:	44400115 	stw	r17,4(r8)
  802030:	d8c02015 	stw	r3,128(sp)
  802034:	d8801f15 	stw	r2,124(sp)
  802038:	010001c4 	movi	r4,7
  80203c:	20bec816 	blt	r4,r2,801b60 <__alt_mem_onchip_memory2+0xff7e1b60>
  802040:	42000204 	addi	r8,r8,8
  802044:	003ecd06 	br	801b7c <__alt_mem_onchip_memory2+0xff7e1b7c>
  802048:	d9002a17 	ldw	r4,168(sp)
  80204c:	d8002785 	stb	zero,158(sp)
  802050:	203d2d16 	blt	r4,zero,801508 <__alt_mem_onchip_memory2+0xff7e1508>
  802054:	00bfdfc4 	movi	r2,-129
  802058:	90a4703a 	and	r18,r18,r2
  80205c:	003a6106 	br	8009e4 <__alt_mem_onchip_memory2+0xff7e09e4>
  802060:	01002074 	movhi	r4,129
  802064:	2101d284 	addi	r4,r4,1866
  802068:	d9002c15 	stw	r4,176(sp)
  80206c:	003bea06 	br	801018 <__alt_mem_onchip_memory2+0xff7e1018>
  802070:	d9002d17 	ldw	r4,180(sp)
  802074:	d9801e04 	addi	r6,sp,120
  802078:	b80b883a 	mov	r5,r23
  80207c:	08080300 	call	808030 <__sprint_r>
  802080:	103a7b1e 	bne	r2,zero,800a70 <__alt_mem_onchip_memory2+0xff7e0a70>
  802084:	d8c02017 	ldw	r3,128(sp)
  802088:	da000404 	addi	r8,sp,16
  80208c:	003d4106 	br	801594 <__alt_mem_onchip_memory2+0xff7e1594>
  802090:	d8801f17 	ldw	r2,124(sp)
  802094:	01402074 	movhi	r5,129
  802098:	01000044 	movi	r4,1
  80209c:	18c00044 	addi	r3,r3,1
  8020a0:	10800044 	addi	r2,r2,1
  8020a4:	2941d204 	addi	r5,r5,1864
  8020a8:	41000115 	stw	r4,4(r8)
  8020ac:	41400015 	stw	r5,0(r8)
  8020b0:	d8c02015 	stw	r3,128(sp)
  8020b4:	d8801f15 	stw	r2,124(sp)
  8020b8:	010001c4 	movi	r4,7
  8020bc:	20805c16 	blt	r4,r2,802230 <___vfprintf_internal_r+0x1bd0>
  8020c0:	42000204 	addi	r8,r8,8
  8020c4:	8800041e 	bne	r17,zero,8020d8 <___vfprintf_internal_r+0x1a78>
  8020c8:	d8803317 	ldw	r2,204(sp)
  8020cc:	1000021e 	bne	r2,zero,8020d8 <___vfprintf_internal_r+0x1a78>
  8020d0:	9080004c 	andi	r2,r18,1
  8020d4:	103be726 	beq	r2,zero,801074 <__alt_mem_onchip_memory2+0xff7e1074>
  8020d8:	d9003717 	ldw	r4,220(sp)
  8020dc:	d8801f17 	ldw	r2,124(sp)
  8020e0:	d9403417 	ldw	r5,208(sp)
  8020e4:	20c7883a 	add	r3,r4,r3
  8020e8:	10800044 	addi	r2,r2,1
  8020ec:	41000115 	stw	r4,4(r8)
  8020f0:	41400015 	stw	r5,0(r8)
  8020f4:	d8c02015 	stw	r3,128(sp)
  8020f8:	d8801f15 	stw	r2,124(sp)
  8020fc:	010001c4 	movi	r4,7
  802100:	20812116 	blt	r4,r2,802588 <___vfprintf_internal_r+0x1f28>
  802104:	42000204 	addi	r8,r8,8
  802108:	0463c83a 	sub	r17,zero,r17
  80210c:	0440730e 	bge	zero,r17,8022dc <___vfprintf_internal_r+0x1c7c>
  802110:	05800404 	movi	r22,16
  802114:	b440860e 	bge	r22,r17,802330 <___vfprintf_internal_r+0x1cd0>
  802118:	01402074 	movhi	r5,129
  80211c:	2941d284 	addi	r5,r5,1866
  802120:	d9402c15 	stw	r5,176(sp)
  802124:	070001c4 	movi	fp,7
  802128:	dcc02d17 	ldw	r19,180(sp)
  80212c:	00000306 	br	80213c <___vfprintf_internal_r+0x1adc>
  802130:	42000204 	addi	r8,r8,8
  802134:	8c7ffc04 	addi	r17,r17,-16
  802138:	b440800e 	bge	r22,r17,80233c <___vfprintf_internal_r+0x1cdc>
  80213c:	18c00404 	addi	r3,r3,16
  802140:	10800044 	addi	r2,r2,1
  802144:	45000015 	stw	r20,0(r8)
  802148:	45800115 	stw	r22,4(r8)
  80214c:	d8c02015 	stw	r3,128(sp)
  802150:	d8801f15 	stw	r2,124(sp)
  802154:	e0bff60e 	bge	fp,r2,802130 <__alt_mem_onchip_memory2+0xff7e2130>
  802158:	d9801e04 	addi	r6,sp,120
  80215c:	b80b883a 	mov	r5,r23
  802160:	9809883a 	mov	r4,r19
  802164:	08080300 	call	808030 <__sprint_r>
  802168:	103a411e 	bne	r2,zero,800a70 <__alt_mem_onchip_memory2+0xff7e0a70>
  80216c:	d8c02017 	ldw	r3,128(sp)
  802170:	d8801f17 	ldw	r2,124(sp)
  802174:	da000404 	addi	r8,sp,16
  802178:	003fee06 	br	802134 <__alt_mem_onchip_memory2+0xff7e2134>
  80217c:	00bfffc4 	movi	r2,-1
  802180:	003a3f06 	br	800a80 <__alt_mem_onchip_memory2+0xff7e0a80>
  802184:	008011c4 	movi	r2,71
  802188:	1440b816 	blt	r2,r17,80246c <___vfprintf_internal_r+0x1e0c>
  80218c:	04002074 	movhi	r16,129
  802190:	8401c404 	addi	r16,r16,1808
  802194:	00c000c4 	movi	r3,3
  802198:	00bfdfc4 	movi	r2,-129
  80219c:	d8c02915 	stw	r3,164(sp)
  8021a0:	90a4703a 	and	r18,r18,r2
  8021a4:	df002783 	ldbu	fp,158(sp)
  8021a8:	d8c02b15 	stw	r3,172(sp)
  8021ac:	d8002a15 	stw	zero,168(sp)
  8021b0:	d8003215 	stw	zero,200(sp)
  8021b4:	003b0706 	br	800dd4 <__alt_mem_onchip_memory2+0xff7e0dd4>
  8021b8:	d8c02e17 	ldw	r3,184(sp)
  8021bc:	1cc00017 	ldw	r19,0(r3)
  8021c0:	18c00104 	addi	r3,r3,4
  8021c4:	d8c02e15 	stw	r3,184(sp)
  8021c8:	982dd7fa 	srai	r22,r19,31
  8021cc:	b005883a 	mov	r2,r22
  8021d0:	003a7706 	br	800bb0 <__alt_mem_onchip_memory2+0xff7e0bb0>
  8021d4:	d8c02e17 	ldw	r3,184(sp)
  8021d8:	d9002f17 	ldw	r4,188(sp)
  8021dc:	18800017 	ldw	r2,0(r3)
  8021e0:	18c00104 	addi	r3,r3,4
  8021e4:	d8c02e15 	stw	r3,184(sp)
  8021e8:	11000015 	stw	r4,0(r2)
  8021ec:	00395406 	br	800740 <__alt_mem_onchip_memory2+0xff7e0740>
  8021f0:	d9002e17 	ldw	r4,184(sp)
  8021f4:	002d883a 	mov	r22,zero
  8021f8:	24c00017 	ldw	r19,0(r4)
  8021fc:	21000104 	addi	r4,r4,4
  802200:	d9002e15 	stw	r4,184(sp)
  802204:	003c0706 	br	801224 <__alt_mem_onchip_memory2+0xff7e1224>
  802208:	d9402e17 	ldw	r5,184(sp)
  80220c:	d8c02a17 	ldw	r3,168(sp)
  802210:	002d883a 	mov	r22,zero
  802214:	28800104 	addi	r2,r5,4
  802218:	2cc0000b 	ldhu	r19,0(r5)
  80221c:	183dc10e 	bge	r3,zero,801924 <__alt_mem_onchip_memory2+0xff7e1924>
  802220:	003f7506 	br	801ff8 <__alt_mem_onchip_memory2+0xff7e1ff8>
  802224:	04002074 	movhi	r16,129
  802228:	8401c204 	addi	r16,r16,1800
  80222c:	003aa706 	br	800ccc <__alt_mem_onchip_memory2+0xff7e0ccc>
  802230:	d9002d17 	ldw	r4,180(sp)
  802234:	d9801e04 	addi	r6,sp,120
  802238:	b80b883a 	mov	r5,r23
  80223c:	08080300 	call	808030 <__sprint_r>
  802240:	103a0b1e 	bne	r2,zero,800a70 <__alt_mem_onchip_memory2+0xff7e0a70>
  802244:	dc402617 	ldw	r17,152(sp)
  802248:	d8c02017 	ldw	r3,128(sp)
  80224c:	da000404 	addi	r8,sp,16
  802250:	003f9c06 	br	8020c4 <__alt_mem_onchip_memory2+0xff7e20c4>
  802254:	ac400043 	ldbu	r17,1(r21)
  802258:	84000814 	ori	r16,r16,32
  80225c:	ad400044 	addi	r21,r21,1
  802260:	8c403fcc 	andi	r17,r17,255
  802264:	8c40201c 	xori	r17,r17,128
  802268:	8c7fe004 	addi	r17,r17,-128
  80226c:	00395e06 	br	8007e8 <__alt_mem_onchip_memory2+0xff7e07e8>
  802270:	d8c02e15 	stw	r3,184(sp)
  802274:	0039883a 	mov	fp,zero
  802278:	003e3506 	br	801b50 <__alt_mem_onchip_memory2+0xff7e1b50>
  80227c:	d9002d17 	ldw	r4,180(sp)
  802280:	d9801e04 	addi	r6,sp,120
  802284:	b80b883a 	mov	r5,r23
  802288:	08080300 	call	808030 <__sprint_r>
  80228c:	1039f81e 	bne	r2,zero,800a70 <__alt_mem_onchip_memory2+0xff7e0a70>
  802290:	d8c02017 	ldw	r3,128(sp)
  802294:	da000404 	addi	r8,sp,16
  802298:	003cd006 	br	8015dc <__alt_mem_onchip_memory2+0xff7e15dc>
  80229c:	8009883a 	mov	r4,r16
  8022a0:	df003d15 	stw	fp,244(sp)
  8022a4:	08005c80 	call	8005c8 <strlen>
  8022a8:	d8802b15 	stw	r2,172(sp)
  8022ac:	da003d17 	ldw	r8,244(sp)
  8022b0:	103c200e 	bge	r2,zero,801334 <__alt_mem_onchip_memory2+0xff7e1334>
  8022b4:	0005883a 	mov	r2,zero
  8022b8:	003c1e06 	br	801334 <__alt_mem_onchip_memory2+0xff7e1334>
  8022bc:	d9002d17 	ldw	r4,180(sp)
  8022c0:	d9801e04 	addi	r6,sp,120
  8022c4:	b80b883a 	mov	r5,r23
  8022c8:	08080300 	call	808030 <__sprint_r>
  8022cc:	1039e81e 	bne	r2,zero,800a70 <__alt_mem_onchip_memory2+0xff7e0a70>
  8022d0:	d8c02017 	ldw	r3,128(sp)
  8022d4:	d8801f17 	ldw	r2,124(sp)
  8022d8:	da000404 	addi	r8,sp,16
  8022dc:	d9403317 	ldw	r5,204(sp)
  8022e0:	10800044 	addi	r2,r2,1
  8022e4:	44000015 	stw	r16,0(r8)
  8022e8:	28c7883a 	add	r3,r5,r3
  8022ec:	003b5b06 	br	80105c <__alt_mem_onchip_memory2+0xff7e105c>
  8022f0:	01002074 	movhi	r4,129
  8022f4:	2101d684 	addi	r4,r4,1882
  8022f8:	d9003515 	stw	r4,212(sp)
  8022fc:	003af206 	br	800ec8 <__alt_mem_onchip_memory2+0xff7e0ec8>
  802300:	013fffc4 	movi	r4,-1
  802304:	003a0806 	br	800b28 <__alt_mem_onchip_memory2+0xff7e0b28>
  802308:	0023883a 	mov	r17,zero
  80230c:	003d9d06 	br	801984 <__alt_mem_onchip_memory2+0xff7e1984>
  802310:	d9002d17 	ldw	r4,180(sp)
  802314:	d9801e04 	addi	r6,sp,120
  802318:	b80b883a 	mov	r5,r23
  80231c:	08080300 	call	808030 <__sprint_r>
  802320:	1039d31e 	bne	r2,zero,800a70 <__alt_mem_onchip_memory2+0xff7e0a70>
  802324:	d8c02017 	ldw	r3,128(sp)
  802328:	da000404 	addi	r8,sp,16
  80232c:	003d9406 	br	801980 <__alt_mem_onchip_memory2+0xff7e1980>
  802330:	01002074 	movhi	r4,129
  802334:	2101d284 	addi	r4,r4,1866
  802338:	d9002c15 	stw	r4,176(sp)
  80233c:	d9002c17 	ldw	r4,176(sp)
  802340:	1c47883a 	add	r3,r3,r17
  802344:	10800044 	addi	r2,r2,1
  802348:	41000015 	stw	r4,0(r8)
  80234c:	44400115 	stw	r17,4(r8)
  802350:	d8c02015 	stw	r3,128(sp)
  802354:	d8801f15 	stw	r2,124(sp)
  802358:	010001c4 	movi	r4,7
  80235c:	20bfd716 	blt	r4,r2,8022bc <__alt_mem_onchip_memory2+0xff7e22bc>
  802360:	42000204 	addi	r8,r8,8
  802364:	003fdd06 	br	8022dc <__alt_mem_onchip_memory2+0xff7e22dc>
  802368:	d9002d17 	ldw	r4,180(sp)
  80236c:	d9801e04 	addi	r6,sp,120
  802370:	b80b883a 	mov	r5,r23
  802374:	08080300 	call	808030 <__sprint_r>
  802378:	1039bd1e 	bne	r2,zero,800a70 <__alt_mem_onchip_memory2+0xff7e0a70>
  80237c:	d8802617 	ldw	r2,152(sp)
  802380:	d8c02017 	ldw	r3,128(sp)
  802384:	da000404 	addi	r8,sp,16
  802388:	003e1006 	br	801bcc <__alt_mem_onchip_memory2+0xff7e1bcc>
  80238c:	00800044 	movi	r2,1
  802390:	10803fcc 	andi	r2,r2,255
  802394:	00c00044 	movi	r3,1
  802398:	10fa0d26 	beq	r2,r3,800bd0 <__alt_mem_onchip_memory2+0xff7e0bd0>
  80239c:	00c00084 	movi	r3,2
  8023a0:	10fbaf26 	beq	r2,r3,801260 <__alt_mem_onchip_memory2+0xff7e1260>
  8023a4:	003a6d06 	br	800d5c <__alt_mem_onchip_memory2+0xff7e0d5c>
  8023a8:	01002074 	movhi	r4,129
  8023ac:	2101d684 	addi	r4,r4,1882
  8023b0:	d9003515 	stw	r4,212(sp)
  8023b4:	003b5406 	br	801108 <__alt_mem_onchip_memory2+0xff7e1108>
  8023b8:	d8802a17 	ldw	r2,168(sp)
  8023bc:	00c00184 	movi	r3,6
  8023c0:	1880012e 	bgeu	r3,r2,8023c8 <___vfprintf_internal_r+0x1d68>
  8023c4:	1805883a 	mov	r2,r3
  8023c8:	d8802b15 	stw	r2,172(sp)
  8023cc:	1000ef16 	blt	r2,zero,80278c <___vfprintf_internal_r+0x212c>
  8023d0:	04002074 	movhi	r16,129
  8023d4:	d8802915 	stw	r2,164(sp)
  8023d8:	dcc02e15 	stw	r19,184(sp)
  8023dc:	d8002a15 	stw	zero,168(sp)
  8023e0:	d8003215 	stw	zero,200(sp)
  8023e4:	8401d004 	addi	r16,r16,1856
  8023e8:	0039883a 	mov	fp,zero
  8023ec:	003a8006 	br	800df0 <__alt_mem_onchip_memory2+0xff7e0df0>
  8023f0:	0021883a 	mov	r16,zero
  8023f4:	003e0706 	br	801c14 <__alt_mem_onchip_memory2+0xff7e1c14>
  8023f8:	d9002d17 	ldw	r4,180(sp)
  8023fc:	d9801e04 	addi	r6,sp,120
  802400:	b80b883a 	mov	r5,r23
  802404:	08080300 	call	808030 <__sprint_r>
  802408:	1039991e 	bne	r2,zero,800a70 <__alt_mem_onchip_memory2+0xff7e0a70>
  80240c:	d8802617 	ldw	r2,152(sp)
  802410:	d9403317 	ldw	r5,204(sp)
  802414:	d8c02017 	ldw	r3,128(sp)
  802418:	da000404 	addi	r8,sp,16
  80241c:	2885c83a 	sub	r2,r5,r2
  802420:	003dfb06 	br	801c10 <__alt_mem_onchip_memory2+0xff7e1c10>
  802424:	9080004c 	andi	r2,r18,1
  802428:	103e8f1e 	bne	r2,zero,801e68 <__alt_mem_onchip_memory2+0xff7e1e68>
  80242c:	d8802117 	ldw	r2,132(sp)
  802430:	003e9e06 	br	801eac <__alt_mem_onchip_memory2+0xff7e1eac>
  802434:	1025883a 	mov	r18,r2
  802438:	0039883a 	mov	fp,zero
  80243c:	00800084 	movi	r2,2
  802440:	003fd306 	br	802390 <__alt_mem_onchip_memory2+0xff7e2390>
  802444:	07000b44 	movi	fp,45
  802448:	df002785 	stb	fp,158(sp)
  80244c:	003a1b06 	br	800cbc <__alt_mem_onchip_memory2+0xff7e0cbc>
  802450:	00c00b44 	movi	r3,45
  802454:	d8c02785 	stb	r3,158(sp)
  802458:	d8802915 	stw	r2,164(sp)
  80245c:	dc802c17 	ldw	r18,176(sp)
  802460:	d8002a15 	stw	zero,168(sp)
  802464:	07000b44 	movi	fp,45
  802468:	003a5e06 	br	800de4 <__alt_mem_onchip_memory2+0xff7e0de4>
  80246c:	04002074 	movhi	r16,129
  802470:	8401c504 	addi	r16,r16,1812
  802474:	003f4706 	br	802194 <__alt_mem_onchip_memory2+0xff7e2194>
  802478:	d9002e17 	ldw	r4,184(sp)
  80247c:	d9402f17 	ldw	r5,188(sp)
  802480:	20800017 	ldw	r2,0(r4)
  802484:	21000104 	addi	r4,r4,4
  802488:	d9002e15 	stw	r4,184(sp)
  80248c:	11400015 	stw	r5,0(r2)
  802490:	0038ab06 	br	800740 <__alt_mem_onchip_memory2+0xff7e0740>
  802494:	dd802617 	ldw	r22,152(sp)
  802498:	00bfff44 	movi	r2,-3
  80249c:	b0801c16 	blt	r22,r2,802510 <___vfprintf_internal_r+0x1eb0>
  8024a0:	d9402a17 	ldw	r5,168(sp)
  8024a4:	2d801a16 	blt	r5,r22,802510 <___vfprintf_internal_r+0x1eb0>
  8024a8:	dd803215 	stw	r22,200(sp)
  8024ac:	003e8906 	br	801ed4 <__alt_mem_onchip_memory2+0xff7e1ed4>
  8024b0:	01002074 	movhi	r4,129
  8024b4:	2101d284 	addi	r4,r4,1866
  8024b8:	d9002c15 	stw	r4,176(sp)
  8024bc:	003c9106 	br	801704 <__alt_mem_onchip_memory2+0xff7e1704>
  8024c0:	e005883a 	mov	r2,fp
  8024c4:	003e7906 	br	801eac <__alt_mem_onchip_memory2+0xff7e1eac>
  8024c8:	d9002a17 	ldw	r4,168(sp)
  8024cc:	df002783 	ldbu	fp,158(sp)
  8024d0:	dcc02e15 	stw	r19,184(sp)
  8024d4:	d9002915 	stw	r4,164(sp)
  8024d8:	d9002b15 	stw	r4,172(sp)
  8024dc:	d8002a15 	stw	zero,168(sp)
  8024e0:	d8003215 	stw	zero,200(sp)
  8024e4:	003a3b06 	br	800dd4 <__alt_mem_onchip_memory2+0xff7e0dd4>
  8024e8:	9080004c 	andi	r2,r18,1
  8024ec:	0039883a 	mov	fp,zero
  8024f0:	10000426 	beq	r2,zero,802504 <___vfprintf_internal_r+0x1ea4>
  8024f4:	00800c04 	movi	r2,48
  8024f8:	dc001dc4 	addi	r16,sp,119
  8024fc:	d8801dc5 	stb	r2,119(sp)
  802500:	003b6406 	br	801294 <__alt_mem_onchip_memory2+0xff7e1294>
  802504:	d8002b15 	stw	zero,172(sp)
  802508:	dc001e04 	addi	r16,sp,120
  80250c:	003a2b06 	br	800dbc <__alt_mem_onchip_memory2+0xff7e0dbc>
  802510:	8c7fff84 	addi	r17,r17,-2
  802514:	b5bfffc4 	addi	r22,r22,-1
  802518:	dd802615 	stw	r22,152(sp)
  80251c:	dc4022c5 	stb	r17,139(sp)
  802520:	b000bf16 	blt	r22,zero,802820 <___vfprintf_internal_r+0x21c0>
  802524:	00800ac4 	movi	r2,43
  802528:	d8802305 	stb	r2,140(sp)
  80252c:	00800244 	movi	r2,9
  802530:	15807016 	blt	r2,r22,8026f4 <___vfprintf_internal_r+0x2094>
  802534:	00800c04 	movi	r2,48
  802538:	b5800c04 	addi	r22,r22,48
  80253c:	d8802345 	stb	r2,141(sp)
  802540:	dd802385 	stb	r22,142(sp)
  802544:	d88023c4 	addi	r2,sp,143
  802548:	df0022c4 	addi	fp,sp,139
  80254c:	d8c03317 	ldw	r3,204(sp)
  802550:	1739c83a 	sub	fp,r2,fp
  802554:	d9003317 	ldw	r4,204(sp)
  802558:	e0c7883a 	add	r3,fp,r3
  80255c:	df003a15 	stw	fp,232(sp)
  802560:	d8c02b15 	stw	r3,172(sp)
  802564:	00800044 	movi	r2,1
  802568:	1100b30e 	bge	r2,r4,802838 <___vfprintf_internal_r+0x21d8>
  80256c:	d8c02b17 	ldw	r3,172(sp)
  802570:	18c00044 	addi	r3,r3,1
  802574:	d8c02b15 	stw	r3,172(sp)
  802578:	1805883a 	mov	r2,r3
  80257c:	1800ac16 	blt	r3,zero,802830 <___vfprintf_internal_r+0x21d0>
  802580:	d8003215 	stw	zero,200(sp)
  802584:	003e5d06 	br	801efc <__alt_mem_onchip_memory2+0xff7e1efc>
  802588:	d9002d17 	ldw	r4,180(sp)
  80258c:	d9801e04 	addi	r6,sp,120
  802590:	b80b883a 	mov	r5,r23
  802594:	08080300 	call	808030 <__sprint_r>
  802598:	1039351e 	bne	r2,zero,800a70 <__alt_mem_onchip_memory2+0xff7e0a70>
  80259c:	dc402617 	ldw	r17,152(sp)
  8025a0:	d8c02017 	ldw	r3,128(sp)
  8025a4:	d8801f17 	ldw	r2,124(sp)
  8025a8:	da000404 	addi	r8,sp,16
  8025ac:	003ed606 	br	802108 <__alt_mem_onchip_memory2+0xff7e2108>
  8025b0:	182b883a 	mov	r21,r3
  8025b4:	d8002a15 	stw	zero,168(sp)
  8025b8:	00388c06 	br	8007ec <__alt_mem_onchip_memory2+0xff7e07ec>
  8025bc:	d8802a17 	ldw	r2,168(sp)
  8025c0:	103e071e 	bne	r2,zero,801de0 <__alt_mem_onchip_memory2+0xff7e1de0>
  8025c4:	dc002a15 	stw	r16,168(sp)
  8025c8:	003e0506 	br	801de0 <__alt_mem_onchip_memory2+0xff7e1de0>
  8025cc:	d9002a17 	ldw	r4,168(sp)
  8025d0:	20c00044 	addi	r3,r4,1
  8025d4:	003e0f06 	br	801e14 <__alt_mem_onchip_memory2+0xff7e1e14>
  8025d8:	01400184 	movi	r5,6
  8025dc:	d9402a15 	stw	r5,168(sp)
  8025e0:	003dff06 	br	801de0 <__alt_mem_onchip_memory2+0xff7e1de0>
  8025e4:	d8802104 	addi	r2,sp,132
  8025e8:	d8800315 	stw	r2,12(sp)
  8025ec:	d8802504 	addi	r2,sp,148
  8025f0:	d8800215 	stw	r2,8(sp)
  8025f4:	d8802604 	addi	r2,sp,152
  8025f8:	d8800115 	stw	r2,4(sp)
  8025fc:	d8802a17 	ldw	r2,168(sp)
  802600:	d9403617 	ldw	r5,216(sp)
  802604:	d9002d17 	ldw	r4,180(sp)
  802608:	d8800015 	stw	r2,0(sp)
  80260c:	01c000c4 	movi	r7,3
  802610:	980d883a 	mov	r6,r19
  802614:	da003d15 	stw	r8,244(sp)
  802618:	0802d900 	call	802d90 <_dtoa_r>
  80261c:	d8c02a17 	ldw	r3,168(sp)
  802620:	da003d17 	ldw	r8,244(sp)
  802624:	1021883a 	mov	r16,r2
  802628:	10f9883a 	add	fp,r2,r3
  80262c:	81000007 	ldb	r4,0(r16)
  802630:	00800c04 	movi	r2,48
  802634:	20805e26 	beq	r4,r2,8027b0 <___vfprintf_internal_r+0x2150>
  802638:	d8c02617 	ldw	r3,152(sp)
  80263c:	e0f9883a 	add	fp,fp,r3
  802640:	003e0a06 	br	801e6c <__alt_mem_onchip_memory2+0xff7e1e6c>
  802644:	00c00b44 	movi	r3,45
  802648:	24e0003c 	xorhi	r19,r4,32768
  80264c:	d8c02905 	stb	r3,164(sp)
  802650:	003de906 	br	801df8 <__alt_mem_onchip_memory2+0xff7e1df8>
  802654:	d8c03217 	ldw	r3,200(sp)
  802658:	00c07a0e 	bge	zero,r3,802844 <___vfprintf_internal_r+0x21e4>
  80265c:	00800044 	movi	r2,1
  802660:	d9003317 	ldw	r4,204(sp)
  802664:	1105883a 	add	r2,r2,r4
  802668:	d8802b15 	stw	r2,172(sp)
  80266c:	10004e16 	blt	r2,zero,8027a8 <___vfprintf_internal_r+0x2148>
  802670:	044019c4 	movi	r17,103
  802674:	003e2106 	br	801efc <__alt_mem_onchip_memory2+0xff7e1efc>
  802678:	d9002a17 	ldw	r4,168(sp)
  80267c:	d8802104 	addi	r2,sp,132
  802680:	d8800315 	stw	r2,12(sp)
  802684:	d9000015 	stw	r4,0(sp)
  802688:	d8802504 	addi	r2,sp,148
  80268c:	d9403617 	ldw	r5,216(sp)
  802690:	d9002d17 	ldw	r4,180(sp)
  802694:	d8800215 	stw	r2,8(sp)
  802698:	d8802604 	addi	r2,sp,152
  80269c:	d8800115 	stw	r2,4(sp)
  8026a0:	01c000c4 	movi	r7,3
  8026a4:	980d883a 	mov	r6,r19
  8026a8:	da003d15 	stw	r8,244(sp)
  8026ac:	0802d900 	call	802d90 <_dtoa_r>
  8026b0:	d8c02a17 	ldw	r3,168(sp)
  8026b4:	da003d17 	ldw	r8,244(sp)
  8026b8:	1021883a 	mov	r16,r2
  8026bc:	00801184 	movi	r2,70
  8026c0:	80f9883a 	add	fp,r16,r3
  8026c4:	88bfd926 	beq	r17,r2,80262c <__alt_mem_onchip_memory2+0xff7e262c>
  8026c8:	003de806 	br	801e6c <__alt_mem_onchip_memory2+0xff7e1e6c>
  8026cc:	d9002a17 	ldw	r4,168(sp)
  8026d0:	00c04d0e 	bge	zero,r3,802808 <___vfprintf_internal_r+0x21a8>
  8026d4:	2000441e 	bne	r4,zero,8027e8 <___vfprintf_internal_r+0x2188>
  8026d8:	9480004c 	andi	r18,r18,1
  8026dc:	9000421e 	bne	r18,zero,8027e8 <___vfprintf_internal_r+0x2188>
  8026e0:	1805883a 	mov	r2,r3
  8026e4:	18006f16 	blt	r3,zero,8028a4 <___vfprintf_internal_r+0x2244>
  8026e8:	d8c03217 	ldw	r3,200(sp)
  8026ec:	d8c02b15 	stw	r3,172(sp)
  8026f0:	003e0206 	br	801efc <__alt_mem_onchip_memory2+0xff7e1efc>
  8026f4:	df0022c4 	addi	fp,sp,139
  8026f8:	dc002a15 	stw	r16,168(sp)
  8026fc:	4027883a 	mov	r19,r8
  802700:	e021883a 	mov	r16,fp
  802704:	b009883a 	mov	r4,r22
  802708:	01400284 	movi	r5,10
  80270c:	080abbc0 	call	80abbc <__modsi3>
  802710:	10800c04 	addi	r2,r2,48
  802714:	843fffc4 	addi	r16,r16,-1
  802718:	b009883a 	mov	r4,r22
  80271c:	01400284 	movi	r5,10
  802720:	80800005 	stb	r2,0(r16)
  802724:	080ab380 	call	80ab38 <__divsi3>
  802728:	102d883a 	mov	r22,r2
  80272c:	00800244 	movi	r2,9
  802730:	15bff416 	blt	r2,r22,802704 <__alt_mem_onchip_memory2+0xff7e2704>
  802734:	9811883a 	mov	r8,r19
  802738:	b0800c04 	addi	r2,r22,48
  80273c:	8027883a 	mov	r19,r16
  802740:	997fffc4 	addi	r5,r19,-1
  802744:	98bfffc5 	stb	r2,-1(r19)
  802748:	dc002a17 	ldw	r16,168(sp)
  80274c:	2f006d2e 	bgeu	r5,fp,802904 <___vfprintf_internal_r+0x22a4>
  802750:	d9c02384 	addi	r7,sp,142
  802754:	3ccfc83a 	sub	r7,r7,r19
  802758:	d9002344 	addi	r4,sp,141
  80275c:	e1cf883a 	add	r7,fp,r7
  802760:	00000106 	br	802768 <___vfprintf_internal_r+0x2108>
  802764:	28800003 	ldbu	r2,0(r5)
  802768:	20800005 	stb	r2,0(r4)
  80276c:	21000044 	addi	r4,r4,1
  802770:	29400044 	addi	r5,r5,1
  802774:	393ffb1e 	bne	r7,r4,802764 <__alt_mem_onchip_memory2+0xff7e2764>
  802778:	d8802304 	addi	r2,sp,140
  80277c:	14c5c83a 	sub	r2,r2,r19
  802780:	d8c02344 	addi	r3,sp,141
  802784:	1885883a 	add	r2,r3,r2
  802788:	003f7006 	br	80254c <__alt_mem_onchip_memory2+0xff7e254c>
  80278c:	0005883a 	mov	r2,zero
  802790:	003f0f06 	br	8023d0 <__alt_mem_onchip_memory2+0xff7e23d0>
  802794:	d8c03217 	ldw	r3,200(sp)
  802798:	18c00044 	addi	r3,r3,1
  80279c:	d8c02b15 	stw	r3,172(sp)
  8027a0:	1805883a 	mov	r2,r3
  8027a4:	183fb20e 	bge	r3,zero,802670 <__alt_mem_onchip_memory2+0xff7e2670>
  8027a8:	0005883a 	mov	r2,zero
  8027ac:	003fb006 	br	802670 <__alt_mem_onchip_memory2+0xff7e2670>
  8027b0:	d9003617 	ldw	r4,216(sp)
  8027b4:	000d883a 	mov	r6,zero
  8027b8:	000f883a 	mov	r7,zero
  8027bc:	980b883a 	mov	r5,r19
  8027c0:	d8c03c15 	stw	r3,240(sp)
  8027c4:	da003d15 	stw	r8,244(sp)
  8027c8:	080bf900 	call	80bf90 <__eqdf2>
  8027cc:	d8c03c17 	ldw	r3,240(sp)
  8027d0:	da003d17 	ldw	r8,244(sp)
  8027d4:	103f9826 	beq	r2,zero,802638 <__alt_mem_onchip_memory2+0xff7e2638>
  8027d8:	00800044 	movi	r2,1
  8027dc:	10c7c83a 	sub	r3,r2,r3
  8027e0:	d8c02615 	stw	r3,152(sp)
  8027e4:	003f9506 	br	80263c <__alt_mem_onchip_memory2+0xff7e263c>
  8027e8:	d9002a17 	ldw	r4,168(sp)
  8027ec:	d8c03217 	ldw	r3,200(sp)
  8027f0:	20800044 	addi	r2,r4,1
  8027f4:	1885883a 	add	r2,r3,r2
  8027f8:	d8802b15 	stw	r2,172(sp)
  8027fc:	103dbf0e 	bge	r2,zero,801efc <__alt_mem_onchip_memory2+0xff7e1efc>
  802800:	0005883a 	mov	r2,zero
  802804:	003dbd06 	br	801efc <__alt_mem_onchip_memory2+0xff7e1efc>
  802808:	2000201e 	bne	r4,zero,80288c <___vfprintf_internal_r+0x222c>
  80280c:	9480004c 	andi	r18,r18,1
  802810:	90001e1e 	bne	r18,zero,80288c <___vfprintf_internal_r+0x222c>
  802814:	00800044 	movi	r2,1
  802818:	d8802b15 	stw	r2,172(sp)
  80281c:	003db706 	br	801efc <__alt_mem_onchip_memory2+0xff7e1efc>
  802820:	00800b44 	movi	r2,45
  802824:	05adc83a 	sub	r22,zero,r22
  802828:	d8802305 	stb	r2,140(sp)
  80282c:	003f3f06 	br	80252c <__alt_mem_onchip_memory2+0xff7e252c>
  802830:	0005883a 	mov	r2,zero
  802834:	003f5206 	br	802580 <__alt_mem_onchip_memory2+0xff7e2580>
  802838:	90a4703a 	and	r18,r18,r2
  80283c:	903f4e26 	beq	r18,zero,802578 <__alt_mem_onchip_memory2+0xff7e2578>
  802840:	003f4a06 	br	80256c <__alt_mem_onchip_memory2+0xff7e256c>
  802844:	00800084 	movi	r2,2
  802848:	10c5c83a 	sub	r2,r2,r3
  80284c:	003f8406 	br	802660 <__alt_mem_onchip_memory2+0xff7e2660>
  802850:	d9402e17 	ldw	r5,184(sp)
  802854:	d9002e17 	ldw	r4,184(sp)
  802858:	ac400043 	ldbu	r17,1(r21)
  80285c:	29400017 	ldw	r5,0(r5)
  802860:	20800104 	addi	r2,r4,4
  802864:	d8802e15 	stw	r2,184(sp)
  802868:	d9402a15 	stw	r5,168(sp)
  80286c:	182b883a 	mov	r21,r3
  802870:	283e7b0e 	bge	r5,zero,802260 <__alt_mem_onchip_memory2+0xff7e2260>
  802874:	8c403fcc 	andi	r17,r17,255
  802878:	017fffc4 	movi	r5,-1
  80287c:	8c40201c 	xori	r17,r17,128
  802880:	d9402a15 	stw	r5,168(sp)
  802884:	8c7fe004 	addi	r17,r17,-128
  802888:	0037d706 	br	8007e8 <__alt_mem_onchip_memory2+0xff7e07e8>
  80288c:	d8c02a17 	ldw	r3,168(sp)
  802890:	18c00084 	addi	r3,r3,2
  802894:	d8c02b15 	stw	r3,172(sp)
  802898:	1805883a 	mov	r2,r3
  80289c:	183d970e 	bge	r3,zero,801efc <__alt_mem_onchip_memory2+0xff7e1efc>
  8028a0:	003fd706 	br	802800 <__alt_mem_onchip_memory2+0xff7e2800>
  8028a4:	0005883a 	mov	r2,zero
  8028a8:	003f8f06 	br	8026e8 <__alt_mem_onchip_memory2+0xff7e26e8>
  8028ac:	9080004c 	andi	r2,r18,1
  8028b0:	103f821e 	bne	r2,zero,8026bc <__alt_mem_onchip_memory2+0xff7e26bc>
  8028b4:	d8802117 	ldw	r2,132(sp)
  8028b8:	1405c83a 	sub	r2,r2,r16
  8028bc:	d8803315 	stw	r2,204(sp)
  8028c0:	b47ef426 	beq	r22,r17,802494 <__alt_mem_onchip_memory2+0xff7e2494>
  8028c4:	dd802617 	ldw	r22,152(sp)
  8028c8:	003f1206 	br	802514 <__alt_mem_onchip_memory2+0xff7e2514>
  8028cc:	d8c02b03 	ldbu	r3,172(sp)
  8028d0:	d8c02785 	stb	r3,158(sp)
  8028d4:	0038df06 	br	800c54 <__alt_mem_onchip_memory2+0xff7e0c54>
  8028d8:	d8c02b03 	ldbu	r3,172(sp)
  8028dc:	d8c02785 	stb	r3,158(sp)
  8028e0:	0038aa06 	br	800b8c <__alt_mem_onchip_memory2+0xff7e0b8c>
  8028e4:	d8c02b03 	ldbu	r3,172(sp)
  8028e8:	d8c02785 	stb	r3,158(sp)
  8028ec:	003a4306 	br	8011fc <__alt_mem_onchip_memory2+0xff7e11fc>
  8028f0:	d8c02b03 	ldbu	r3,172(sp)
  8028f4:	d8c02785 	stb	r3,158(sp)
  8028f8:	003af506 	br	8014d0 <__alt_mem_onchip_memory2+0xff7e14d0>
  8028fc:	0005883a 	mov	r2,zero
  802900:	003d7b06 	br	801ef0 <__alt_mem_onchip_memory2+0xff7e1ef0>
  802904:	d8802344 	addi	r2,sp,141
  802908:	003f1006 	br	80254c <__alt_mem_onchip_memory2+0xff7e254c>
  80290c:	d8c02b03 	ldbu	r3,172(sp)
  802910:	d8c02785 	stb	r3,158(sp)
  802914:	0038fd06 	br	800d0c <__alt_mem_onchip_memory2+0xff7e0d0c>
  802918:	d8c02b03 	ldbu	r3,172(sp)
  80291c:	d8c02785 	stb	r3,158(sp)
  802920:	003a9706 	br	801380 <__alt_mem_onchip_memory2+0xff7e1380>
  802924:	d8c02b03 	ldbu	r3,172(sp)
  802928:	d8c02785 	stb	r3,158(sp)
  80292c:	003a1806 	br	801190 <__alt_mem_onchip_memory2+0xff7e1190>
  802930:	d8c02b03 	ldbu	r3,172(sp)
  802934:	d8c02785 	stb	r3,158(sp)
  802938:	003abe06 	br	801434 <__alt_mem_onchip_memory2+0xff7e1434>

0080293c <__vfprintf_internal>:
  80293c:	00802074 	movhi	r2,129
  802940:	10895e04 	addi	r2,r2,9592
  802944:	300f883a 	mov	r7,r6
  802948:	280d883a 	mov	r6,r5
  80294c:	200b883a 	mov	r5,r4
  802950:	11000017 	ldw	r4,0(r2)
  802954:	08006601 	jmpi	800660 <___vfprintf_internal_r>

00802958 <__sbprintf>:
  802958:	2880030b 	ldhu	r2,12(r5)
  80295c:	2ac01917 	ldw	r11,100(r5)
  802960:	2a80038b 	ldhu	r10,14(r5)
  802964:	2a400717 	ldw	r9,28(r5)
  802968:	2a000917 	ldw	r8,36(r5)
  80296c:	defee204 	addi	sp,sp,-1144
  802970:	00c10004 	movi	r3,1024
  802974:	dc011a15 	stw	r16,1128(sp)
  802978:	10bfff4c 	andi	r2,r2,65533
  80297c:	2821883a 	mov	r16,r5
  802980:	d8cb883a 	add	r5,sp,r3
  802984:	dc811c15 	stw	r18,1136(sp)
  802988:	dc411b15 	stw	r17,1132(sp)
  80298c:	dfc11d15 	stw	ra,1140(sp)
  802990:	2025883a 	mov	r18,r4
  802994:	d881030d 	sth	r2,1036(sp)
  802998:	dac11915 	stw	r11,1124(sp)
  80299c:	da81038d 	sth	r10,1038(sp)
  8029a0:	da410715 	stw	r9,1052(sp)
  8029a4:	da010915 	stw	r8,1060(sp)
  8029a8:	dec10015 	stw	sp,1024(sp)
  8029ac:	dec10415 	stw	sp,1040(sp)
  8029b0:	d8c10215 	stw	r3,1032(sp)
  8029b4:	d8c10515 	stw	r3,1044(sp)
  8029b8:	d8010615 	stw	zero,1048(sp)
  8029bc:	08006600 	call	800660 <___vfprintf_internal_r>
  8029c0:	1023883a 	mov	r17,r2
  8029c4:	10000416 	blt	r2,zero,8029d8 <__sbprintf+0x80>
  8029c8:	d9410004 	addi	r5,sp,1024
  8029cc:	9009883a 	mov	r4,r18
  8029d0:	08046340 	call	804634 <_fflush_r>
  8029d4:	10000d1e 	bne	r2,zero,802a0c <__sbprintf+0xb4>
  8029d8:	d881030b 	ldhu	r2,1036(sp)
  8029dc:	1080100c 	andi	r2,r2,64
  8029e0:	10000326 	beq	r2,zero,8029f0 <__sbprintf+0x98>
  8029e4:	8080030b 	ldhu	r2,12(r16)
  8029e8:	10801014 	ori	r2,r2,64
  8029ec:	8080030d 	sth	r2,12(r16)
  8029f0:	8805883a 	mov	r2,r17
  8029f4:	dfc11d17 	ldw	ra,1140(sp)
  8029f8:	dc811c17 	ldw	r18,1136(sp)
  8029fc:	dc411b17 	ldw	r17,1132(sp)
  802a00:	dc011a17 	ldw	r16,1128(sp)
  802a04:	dec11e04 	addi	sp,sp,1144
  802a08:	f800283a 	ret
  802a0c:	047fffc4 	movi	r17,-1
  802a10:	003ff106 	br	8029d8 <__alt_mem_onchip_memory2+0xff7e29d8>

00802a14 <__swsetup_r>:
  802a14:	00802074 	movhi	r2,129
  802a18:	defffd04 	addi	sp,sp,-12
  802a1c:	10895e04 	addi	r2,r2,9592
  802a20:	dc400115 	stw	r17,4(sp)
  802a24:	2023883a 	mov	r17,r4
  802a28:	11000017 	ldw	r4,0(r2)
  802a2c:	dc000015 	stw	r16,0(sp)
  802a30:	dfc00215 	stw	ra,8(sp)
  802a34:	2821883a 	mov	r16,r5
  802a38:	20000226 	beq	r4,zero,802a44 <__swsetup_r+0x30>
  802a3c:	20800e17 	ldw	r2,56(r4)
  802a40:	10003126 	beq	r2,zero,802b08 <__swsetup_r+0xf4>
  802a44:	8080030b 	ldhu	r2,12(r16)
  802a48:	10c0020c 	andi	r3,r2,8
  802a4c:	1009883a 	mov	r4,r2
  802a50:	18000f26 	beq	r3,zero,802a90 <__swsetup_r+0x7c>
  802a54:	80c00417 	ldw	r3,16(r16)
  802a58:	18001526 	beq	r3,zero,802ab0 <__swsetup_r+0x9c>
  802a5c:	1100004c 	andi	r4,r2,1
  802a60:	20001c1e 	bne	r4,zero,802ad4 <__swsetup_r+0xc0>
  802a64:	1080008c 	andi	r2,r2,2
  802a68:	1000291e 	bne	r2,zero,802b10 <__swsetup_r+0xfc>
  802a6c:	80800517 	ldw	r2,20(r16)
  802a70:	80800215 	stw	r2,8(r16)
  802a74:	18001c26 	beq	r3,zero,802ae8 <__swsetup_r+0xd4>
  802a78:	0005883a 	mov	r2,zero
  802a7c:	dfc00217 	ldw	ra,8(sp)
  802a80:	dc400117 	ldw	r17,4(sp)
  802a84:	dc000017 	ldw	r16,0(sp)
  802a88:	dec00304 	addi	sp,sp,12
  802a8c:	f800283a 	ret
  802a90:	2080040c 	andi	r2,r4,16
  802a94:	10002e26 	beq	r2,zero,802b50 <__swsetup_r+0x13c>
  802a98:	2080010c 	andi	r2,r4,4
  802a9c:	10001e1e 	bne	r2,zero,802b18 <__swsetup_r+0x104>
  802aa0:	80c00417 	ldw	r3,16(r16)
  802aa4:	20800214 	ori	r2,r4,8
  802aa8:	8080030d 	sth	r2,12(r16)
  802aac:	183feb1e 	bne	r3,zero,802a5c <__alt_mem_onchip_memory2+0xff7e2a5c>
  802ab0:	1100a00c 	andi	r4,r2,640
  802ab4:	01408004 	movi	r5,512
  802ab8:	217fe826 	beq	r4,r5,802a5c <__alt_mem_onchip_memory2+0xff7e2a5c>
  802abc:	800b883a 	mov	r5,r16
  802ac0:	8809883a 	mov	r4,r17
  802ac4:	08055d00 	call	8055d0 <__smakebuf_r>
  802ac8:	8080030b 	ldhu	r2,12(r16)
  802acc:	80c00417 	ldw	r3,16(r16)
  802ad0:	003fe206 	br	802a5c <__alt_mem_onchip_memory2+0xff7e2a5c>
  802ad4:	80800517 	ldw	r2,20(r16)
  802ad8:	80000215 	stw	zero,8(r16)
  802adc:	0085c83a 	sub	r2,zero,r2
  802ae0:	80800615 	stw	r2,24(r16)
  802ae4:	183fe41e 	bne	r3,zero,802a78 <__alt_mem_onchip_memory2+0xff7e2a78>
  802ae8:	80c0030b 	ldhu	r3,12(r16)
  802aec:	0005883a 	mov	r2,zero
  802af0:	1900200c 	andi	r4,r3,128
  802af4:	203fe126 	beq	r4,zero,802a7c <__alt_mem_onchip_memory2+0xff7e2a7c>
  802af8:	18c01014 	ori	r3,r3,64
  802afc:	80c0030d 	sth	r3,12(r16)
  802b00:	00bfffc4 	movi	r2,-1
  802b04:	003fdd06 	br	802a7c <__alt_mem_onchip_memory2+0xff7e2a7c>
  802b08:	0804a200 	call	804a20 <__sinit>
  802b0c:	003fcd06 	br	802a44 <__alt_mem_onchip_memory2+0xff7e2a44>
  802b10:	0005883a 	mov	r2,zero
  802b14:	003fd606 	br	802a70 <__alt_mem_onchip_memory2+0xff7e2a70>
  802b18:	81400c17 	ldw	r5,48(r16)
  802b1c:	28000626 	beq	r5,zero,802b38 <__swsetup_r+0x124>
  802b20:	80801004 	addi	r2,r16,64
  802b24:	28800326 	beq	r5,r2,802b34 <__swsetup_r+0x120>
  802b28:	8809883a 	mov	r4,r17
  802b2c:	0804b940 	call	804b94 <_free_r>
  802b30:	8100030b 	ldhu	r4,12(r16)
  802b34:	80000c15 	stw	zero,48(r16)
  802b38:	80c00417 	ldw	r3,16(r16)
  802b3c:	00bff6c4 	movi	r2,-37
  802b40:	1108703a 	and	r4,r2,r4
  802b44:	80000115 	stw	zero,4(r16)
  802b48:	80c00015 	stw	r3,0(r16)
  802b4c:	003fd506 	br	802aa4 <__alt_mem_onchip_memory2+0xff7e2aa4>
  802b50:	00800244 	movi	r2,9
  802b54:	88800015 	stw	r2,0(r17)
  802b58:	20801014 	ori	r2,r4,64
  802b5c:	8080030d 	sth	r2,12(r16)
  802b60:	00bfffc4 	movi	r2,-1
  802b64:	003fc506 	br	802a7c <__alt_mem_onchip_memory2+0xff7e2a7c>

00802b68 <quorem>:
  802b68:	defff204 	addi	sp,sp,-56
  802b6c:	ddc00b15 	stw	r23,44(sp)
  802b70:	20800417 	ldw	r2,16(r4)
  802b74:	2dc00417 	ldw	r23,16(r5)
  802b78:	dfc00d15 	stw	ra,52(sp)
  802b7c:	df000c15 	stw	fp,48(sp)
  802b80:	dd800a15 	stw	r22,40(sp)
  802b84:	dd400915 	stw	r21,36(sp)
  802b88:	dd000815 	stw	r20,32(sp)
  802b8c:	dcc00715 	stw	r19,28(sp)
  802b90:	dc800615 	stw	r18,24(sp)
  802b94:	dc400515 	stw	r17,20(sp)
  802b98:	dc000415 	stw	r16,16(sp)
  802b9c:	15c07a16 	blt	r2,r23,802d88 <quorem+0x220>
  802ba0:	bdffffc4 	addi	r23,r23,-1
  802ba4:	bde9883a 	add	r20,r23,r23
  802ba8:	28c00504 	addi	r3,r5,20
  802bac:	a529883a 	add	r20,r20,r20
  802bb0:	1d39883a 	add	fp,r3,r20
  802bb4:	24c00504 	addi	r19,r4,20
  802bb8:	d9400215 	stw	r5,8(sp)
  802bbc:	9d29883a 	add	r20,r19,r20
  802bc0:	e1400017 	ldw	r5,0(fp)
  802bc4:	d9000015 	stw	r4,0(sp)
  802bc8:	a1000017 	ldw	r4,0(r20)
  802bcc:	29400044 	addi	r5,r5,1
  802bd0:	d8c00115 	stw	r3,4(sp)
  802bd4:	dd000315 	stw	r20,12(sp)
  802bd8:	080ac300 	call	80ac30 <__udivsi3>
  802bdc:	1025883a 	mov	r18,r2
  802be0:	10003026 	beq	r2,zero,802ca4 <quorem+0x13c>
  802be4:	dc400117 	ldw	r17,4(sp)
  802be8:	9829883a 	mov	r20,r19
  802bec:	002d883a 	mov	r22,zero
  802bf0:	0021883a 	mov	r16,zero
  802bf4:	8d400017 	ldw	r21,0(r17)
  802bf8:	900b883a 	mov	r5,r18
  802bfc:	8c400104 	addi	r17,r17,4
  802c00:	a93fffcc 	andi	r4,r21,65535
  802c04:	080acec0 	call	80acec <__mulsi3>
  802c08:	a808d43a 	srli	r4,r21,16
  802c0c:	900b883a 	mov	r5,r18
  802c10:	15ad883a 	add	r22,r2,r22
  802c14:	080acec0 	call	80acec <__mulsi3>
  802c18:	a1000017 	ldw	r4,0(r20)
  802c1c:	b00cd43a 	srli	r6,r22,16
  802c20:	b0ffffcc 	andi	r3,r22,65535
  802c24:	217fffcc 	andi	r5,r4,65535
  802c28:	2c21883a 	add	r16,r5,r16
  802c2c:	80c7c83a 	sub	r3,r16,r3
  802c30:	2008d43a 	srli	r4,r4,16
  802c34:	1185883a 	add	r2,r2,r6
  802c38:	1821d43a 	srai	r16,r3,16
  802c3c:	117fffcc 	andi	r5,r2,65535
  802c40:	2149c83a 	sub	r4,r4,r5
  802c44:	2421883a 	add	r16,r4,r16
  802c48:	8008943a 	slli	r4,r16,16
  802c4c:	18ffffcc 	andi	r3,r3,65535
  802c50:	102cd43a 	srli	r22,r2,16
  802c54:	20c8b03a 	or	r4,r4,r3
  802c58:	a1000015 	stw	r4,0(r20)
  802c5c:	8021d43a 	srai	r16,r16,16
  802c60:	a5000104 	addi	r20,r20,4
  802c64:	e47fe32e 	bgeu	fp,r17,802bf4 <__alt_mem_onchip_memory2+0xff7e2bf4>
  802c68:	d8c00317 	ldw	r3,12(sp)
  802c6c:	18800017 	ldw	r2,0(r3)
  802c70:	10000c1e 	bne	r2,zero,802ca4 <quorem+0x13c>
  802c74:	18bfff04 	addi	r2,r3,-4
  802c78:	9880082e 	bgeu	r19,r2,802c9c <quorem+0x134>
  802c7c:	18ffff17 	ldw	r3,-4(r3)
  802c80:	18000326 	beq	r3,zero,802c90 <quorem+0x128>
  802c84:	00000506 	br	802c9c <quorem+0x134>
  802c88:	10c00017 	ldw	r3,0(r2)
  802c8c:	1800031e 	bne	r3,zero,802c9c <quorem+0x134>
  802c90:	10bfff04 	addi	r2,r2,-4
  802c94:	bdffffc4 	addi	r23,r23,-1
  802c98:	98bffb36 	bltu	r19,r2,802c88 <__alt_mem_onchip_memory2+0xff7e2c88>
  802c9c:	d8c00017 	ldw	r3,0(sp)
  802ca0:	1dc00415 	stw	r23,16(r3)
  802ca4:	d9400217 	ldw	r5,8(sp)
  802ca8:	d9000017 	ldw	r4,0(sp)
  802cac:	0806dcc0 	call	806dcc <__mcmp>
  802cb0:	10002816 	blt	r2,zero,802d54 <quorem+0x1ec>
  802cb4:	dc400117 	ldw	r17,4(sp)
  802cb8:	94800044 	addi	r18,r18,1
  802cbc:	980d883a 	mov	r6,r19
  802cc0:	0007883a 	mov	r3,zero
  802cc4:	31000017 	ldw	r4,0(r6)
  802cc8:	89400017 	ldw	r5,0(r17)
  802ccc:	31800104 	addi	r6,r6,4
  802cd0:	20bfffcc 	andi	r2,r4,65535
  802cd4:	10c7883a 	add	r3,r2,r3
  802cd8:	28bfffcc 	andi	r2,r5,65535
  802cdc:	1885c83a 	sub	r2,r3,r2
  802ce0:	280ad43a 	srli	r5,r5,16
  802ce4:	2008d43a 	srli	r4,r4,16
  802ce8:	1007d43a 	srai	r3,r2,16
  802cec:	10bfffcc 	andi	r2,r2,65535
  802cf0:	2149c83a 	sub	r4,r4,r5
  802cf4:	20c9883a 	add	r4,r4,r3
  802cf8:	200a943a 	slli	r5,r4,16
  802cfc:	8c400104 	addi	r17,r17,4
  802d00:	2007d43a 	srai	r3,r4,16
  802d04:	2884b03a 	or	r2,r5,r2
  802d08:	30bfff15 	stw	r2,-4(r6)
  802d0c:	e47fed2e 	bgeu	fp,r17,802cc4 <__alt_mem_onchip_memory2+0xff7e2cc4>
  802d10:	bdc5883a 	add	r2,r23,r23
  802d14:	1085883a 	add	r2,r2,r2
  802d18:	9887883a 	add	r3,r19,r2
  802d1c:	18800017 	ldw	r2,0(r3)
  802d20:	10000c1e 	bne	r2,zero,802d54 <quorem+0x1ec>
  802d24:	18bfff04 	addi	r2,r3,-4
  802d28:	9880082e 	bgeu	r19,r2,802d4c <quorem+0x1e4>
  802d2c:	18ffff17 	ldw	r3,-4(r3)
  802d30:	18000326 	beq	r3,zero,802d40 <quorem+0x1d8>
  802d34:	00000506 	br	802d4c <quorem+0x1e4>
  802d38:	10c00017 	ldw	r3,0(r2)
  802d3c:	1800031e 	bne	r3,zero,802d4c <quorem+0x1e4>
  802d40:	10bfff04 	addi	r2,r2,-4
  802d44:	bdffffc4 	addi	r23,r23,-1
  802d48:	98bffb36 	bltu	r19,r2,802d38 <__alt_mem_onchip_memory2+0xff7e2d38>
  802d4c:	d8c00017 	ldw	r3,0(sp)
  802d50:	1dc00415 	stw	r23,16(r3)
  802d54:	9005883a 	mov	r2,r18
  802d58:	dfc00d17 	ldw	ra,52(sp)
  802d5c:	df000c17 	ldw	fp,48(sp)
  802d60:	ddc00b17 	ldw	r23,44(sp)
  802d64:	dd800a17 	ldw	r22,40(sp)
  802d68:	dd400917 	ldw	r21,36(sp)
  802d6c:	dd000817 	ldw	r20,32(sp)
  802d70:	dcc00717 	ldw	r19,28(sp)
  802d74:	dc800617 	ldw	r18,24(sp)
  802d78:	dc400517 	ldw	r17,20(sp)
  802d7c:	dc000417 	ldw	r16,16(sp)
  802d80:	dec00e04 	addi	sp,sp,56
  802d84:	f800283a 	ret
  802d88:	0005883a 	mov	r2,zero
  802d8c:	003ff206 	br	802d58 <__alt_mem_onchip_memory2+0xff7e2d58>

00802d90 <_dtoa_r>:
  802d90:	20801017 	ldw	r2,64(r4)
  802d94:	deffde04 	addi	sp,sp,-136
  802d98:	df002015 	stw	fp,128(sp)
  802d9c:	dcc01b15 	stw	r19,108(sp)
  802da0:	dc801a15 	stw	r18,104(sp)
  802da4:	dc401915 	stw	r17,100(sp)
  802da8:	dc001815 	stw	r16,96(sp)
  802dac:	dfc02115 	stw	ra,132(sp)
  802db0:	ddc01f15 	stw	r23,124(sp)
  802db4:	dd801e15 	stw	r22,120(sp)
  802db8:	dd401d15 	stw	r21,116(sp)
  802dbc:	dd001c15 	stw	r20,112(sp)
  802dc0:	d9c00315 	stw	r7,12(sp)
  802dc4:	2039883a 	mov	fp,r4
  802dc8:	3023883a 	mov	r17,r6
  802dcc:	2825883a 	mov	r18,r5
  802dd0:	dc002417 	ldw	r16,144(sp)
  802dd4:	3027883a 	mov	r19,r6
  802dd8:	10000826 	beq	r2,zero,802dfc <_dtoa_r+0x6c>
  802ddc:	21801117 	ldw	r6,68(r4)
  802de0:	00c00044 	movi	r3,1
  802de4:	100b883a 	mov	r5,r2
  802de8:	1986983a 	sll	r3,r3,r6
  802dec:	11800115 	stw	r6,4(r2)
  802df0:	10c00215 	stw	r3,8(r2)
  802df4:	08064f00 	call	8064f0 <_Bfree>
  802df8:	e0001015 	stw	zero,64(fp)
  802dfc:	88002e16 	blt	r17,zero,802eb8 <_dtoa_r+0x128>
  802e00:	80000015 	stw	zero,0(r16)
  802e04:	889ffc2c 	andhi	r2,r17,32752
  802e08:	00dffc34 	movhi	r3,32752
  802e0c:	10c01c26 	beq	r2,r3,802e80 <_dtoa_r+0xf0>
  802e10:	000d883a 	mov	r6,zero
  802e14:	000f883a 	mov	r7,zero
  802e18:	9009883a 	mov	r4,r18
  802e1c:	980b883a 	mov	r5,r19
  802e20:	080bf900 	call	80bf90 <__eqdf2>
  802e24:	10002b1e 	bne	r2,zero,802ed4 <_dtoa_r+0x144>
  802e28:	d9c02317 	ldw	r7,140(sp)
  802e2c:	00800044 	movi	r2,1
  802e30:	38800015 	stw	r2,0(r7)
  802e34:	d8802517 	ldw	r2,148(sp)
  802e38:	10019e26 	beq	r2,zero,8034b4 <_dtoa_r+0x724>
  802e3c:	d8c02517 	ldw	r3,148(sp)
  802e40:	00802074 	movhi	r2,129
  802e44:	1081d244 	addi	r2,r2,1865
  802e48:	18800015 	stw	r2,0(r3)
  802e4c:	10bfffc4 	addi	r2,r2,-1
  802e50:	dfc02117 	ldw	ra,132(sp)
  802e54:	df002017 	ldw	fp,128(sp)
  802e58:	ddc01f17 	ldw	r23,124(sp)
  802e5c:	dd801e17 	ldw	r22,120(sp)
  802e60:	dd401d17 	ldw	r21,116(sp)
  802e64:	dd001c17 	ldw	r20,112(sp)
  802e68:	dcc01b17 	ldw	r19,108(sp)
  802e6c:	dc801a17 	ldw	r18,104(sp)
  802e70:	dc401917 	ldw	r17,100(sp)
  802e74:	dc001817 	ldw	r16,96(sp)
  802e78:	dec02204 	addi	sp,sp,136
  802e7c:	f800283a 	ret
  802e80:	d8c02317 	ldw	r3,140(sp)
  802e84:	0089c3c4 	movi	r2,9999
  802e88:	18800015 	stw	r2,0(r3)
  802e8c:	90017726 	beq	r18,zero,80346c <_dtoa_r+0x6dc>
  802e90:	00802074 	movhi	r2,129
  802e94:	1081de04 	addi	r2,r2,1912
  802e98:	d9002517 	ldw	r4,148(sp)
  802e9c:	203fec26 	beq	r4,zero,802e50 <__alt_mem_onchip_memory2+0xff7e2e50>
  802ea0:	10c000c7 	ldb	r3,3(r2)
  802ea4:	1801781e 	bne	r3,zero,803488 <_dtoa_r+0x6f8>
  802ea8:	10c000c4 	addi	r3,r2,3
  802eac:	d9802517 	ldw	r6,148(sp)
  802eb0:	30c00015 	stw	r3,0(r6)
  802eb4:	003fe606 	br	802e50 <__alt_mem_onchip_memory2+0xff7e2e50>
  802eb8:	04e00034 	movhi	r19,32768
  802ebc:	9cffffc4 	addi	r19,r19,-1
  802ec0:	00800044 	movi	r2,1
  802ec4:	8ce6703a 	and	r19,r17,r19
  802ec8:	80800015 	stw	r2,0(r16)
  802ecc:	9823883a 	mov	r17,r19
  802ed0:	003fcc06 	br	802e04 <__alt_mem_onchip_memory2+0xff7e2e04>
  802ed4:	d8800204 	addi	r2,sp,8
  802ed8:	d8800015 	stw	r2,0(sp)
  802edc:	d9c00104 	addi	r7,sp,4
  802ee0:	900b883a 	mov	r5,r18
  802ee4:	980d883a 	mov	r6,r19
  802ee8:	e009883a 	mov	r4,fp
  802eec:	8820d53a 	srli	r16,r17,20
  802ef0:	08071980 	call	807198 <__d2b>
  802ef4:	d8800915 	stw	r2,36(sp)
  802ef8:	8001651e 	bne	r16,zero,803490 <_dtoa_r+0x700>
  802efc:	dd800217 	ldw	r22,8(sp)
  802f00:	dc000117 	ldw	r16,4(sp)
  802f04:	00800804 	movi	r2,32
  802f08:	b421883a 	add	r16,r22,r16
  802f0c:	80c10c84 	addi	r3,r16,1074
  802f10:	10c2d10e 	bge	r2,r3,803a58 <_dtoa_r+0xcc8>
  802f14:	00801004 	movi	r2,64
  802f18:	81010484 	addi	r4,r16,1042
  802f1c:	10c7c83a 	sub	r3,r2,r3
  802f20:	9108d83a 	srl	r4,r18,r4
  802f24:	88e2983a 	sll	r17,r17,r3
  802f28:	2448b03a 	or	r4,r4,r17
  802f2c:	080d4ac0 	call	80d4ac <__floatunsidf>
  802f30:	017f8434 	movhi	r5,65040
  802f34:	01800044 	movi	r6,1
  802f38:	1009883a 	mov	r4,r2
  802f3c:	194b883a 	add	r5,r3,r5
  802f40:	843fffc4 	addi	r16,r16,-1
  802f44:	d9801115 	stw	r6,68(sp)
  802f48:	000d883a 	mov	r6,zero
  802f4c:	01cffe34 	movhi	r7,16376
  802f50:	080ca540 	call	80ca54 <__subdf3>
  802f54:	0198dbf4 	movhi	r6,25455
  802f58:	01cff4f4 	movhi	r7,16339
  802f5c:	3190d844 	addi	r6,r6,17249
  802f60:	39e1e9c4 	addi	r7,r7,-30809
  802f64:	1009883a 	mov	r4,r2
  802f68:	180b883a 	mov	r5,r3
  802f6c:	080c1e80 	call	80c1e8 <__muldf3>
  802f70:	01a2d874 	movhi	r6,35681
  802f74:	01cff1f4 	movhi	r7,16327
  802f78:	31b22cc4 	addi	r6,r6,-14157
  802f7c:	39e28a04 	addi	r7,r7,-30168
  802f80:	180b883a 	mov	r5,r3
  802f84:	1009883a 	mov	r4,r2
  802f88:	080ad140 	call	80ad14 <__adddf3>
  802f8c:	8009883a 	mov	r4,r16
  802f90:	1029883a 	mov	r20,r2
  802f94:	1823883a 	mov	r17,r3
  802f98:	080d3d00 	call	80d3d0 <__floatsidf>
  802f9c:	019427f4 	movhi	r6,20639
  802fa0:	01cff4f4 	movhi	r7,16339
  802fa4:	319e7ec4 	addi	r6,r6,31227
  802fa8:	39d104c4 	addi	r7,r7,17427
  802fac:	1009883a 	mov	r4,r2
  802fb0:	180b883a 	mov	r5,r3
  802fb4:	080c1e80 	call	80c1e8 <__muldf3>
  802fb8:	100d883a 	mov	r6,r2
  802fbc:	180f883a 	mov	r7,r3
  802fc0:	a009883a 	mov	r4,r20
  802fc4:	880b883a 	mov	r5,r17
  802fc8:	080ad140 	call	80ad14 <__adddf3>
  802fcc:	1009883a 	mov	r4,r2
  802fd0:	180b883a 	mov	r5,r3
  802fd4:	1029883a 	mov	r20,r2
  802fd8:	1823883a 	mov	r17,r3
  802fdc:	080d3500 	call	80d350 <__fixdfsi>
  802fe0:	000d883a 	mov	r6,zero
  802fe4:	000f883a 	mov	r7,zero
  802fe8:	a009883a 	mov	r4,r20
  802fec:	880b883a 	mov	r5,r17
  802ff0:	d8800515 	stw	r2,20(sp)
  802ff4:	080c0f40 	call	80c0f4 <__ledf2>
  802ff8:	10028716 	blt	r2,zero,803a18 <_dtoa_r+0xc88>
  802ffc:	d8c00517 	ldw	r3,20(sp)
  803000:	00800584 	movi	r2,22
  803004:	10c27536 	bltu	r2,r3,8039dc <_dtoa_r+0xc4c>
  803008:	180490fa 	slli	r2,r3,3
  80300c:	00c02074 	movhi	r3,129
  803010:	18c1f904 	addi	r3,r3,2020
  803014:	1885883a 	add	r2,r3,r2
  803018:	11000017 	ldw	r4,0(r2)
  80301c:	11400117 	ldw	r5,4(r2)
  803020:	900d883a 	mov	r6,r18
  803024:	980f883a 	mov	r7,r19
  803028:	080c0180 	call	80c018 <__gedf2>
  80302c:	00828d0e 	bge	zero,r2,803a64 <_dtoa_r+0xcd4>
  803030:	d9000517 	ldw	r4,20(sp)
  803034:	d8000e15 	stw	zero,56(sp)
  803038:	213fffc4 	addi	r4,r4,-1
  80303c:	d9000515 	stw	r4,20(sp)
  803040:	b42dc83a 	sub	r22,r22,r16
  803044:	b5bfffc4 	addi	r22,r22,-1
  803048:	b0026f16 	blt	r22,zero,803a08 <_dtoa_r+0xc78>
  80304c:	d8000815 	stw	zero,32(sp)
  803050:	d9c00517 	ldw	r7,20(sp)
  803054:	38026416 	blt	r7,zero,8039e8 <_dtoa_r+0xc58>
  803058:	b1ed883a 	add	r22,r22,r7
  80305c:	d9c00d15 	stw	r7,52(sp)
  803060:	d8000a15 	stw	zero,40(sp)
  803064:	d9800317 	ldw	r6,12(sp)
  803068:	00800244 	movi	r2,9
  80306c:	11811436 	bltu	r2,r6,8034c0 <_dtoa_r+0x730>
  803070:	00800144 	movi	r2,5
  803074:	1184e10e 	bge	r2,r6,8043fc <_dtoa_r+0x166c>
  803078:	31bfff04 	addi	r6,r6,-4
  80307c:	d9800315 	stw	r6,12(sp)
  803080:	0023883a 	mov	r17,zero
  803084:	d9800317 	ldw	r6,12(sp)
  803088:	008000c4 	movi	r2,3
  80308c:	30836726 	beq	r6,r2,803e2c <_dtoa_r+0x109c>
  803090:	1183410e 	bge	r2,r6,803d98 <_dtoa_r+0x1008>
  803094:	d9c00317 	ldw	r7,12(sp)
  803098:	00800104 	movi	r2,4
  80309c:	38827c26 	beq	r7,r2,803a90 <_dtoa_r+0xd00>
  8030a0:	00800144 	movi	r2,5
  8030a4:	3884c41e 	bne	r7,r2,8043b8 <_dtoa_r+0x1628>
  8030a8:	00800044 	movi	r2,1
  8030ac:	d8800b15 	stw	r2,44(sp)
  8030b0:	d8c00517 	ldw	r3,20(sp)
  8030b4:	d9002217 	ldw	r4,136(sp)
  8030b8:	1907883a 	add	r3,r3,r4
  8030bc:	19800044 	addi	r6,r3,1
  8030c0:	d8c00c15 	stw	r3,48(sp)
  8030c4:	d9800615 	stw	r6,24(sp)
  8030c8:	0183a40e 	bge	zero,r6,803f5c <_dtoa_r+0x11cc>
  8030cc:	d9800617 	ldw	r6,24(sp)
  8030d0:	3021883a 	mov	r16,r6
  8030d4:	e0001115 	stw	zero,68(fp)
  8030d8:	008005c4 	movi	r2,23
  8030dc:	1184c92e 	bgeu	r2,r6,804404 <_dtoa_r+0x1674>
  8030e0:	00c00044 	movi	r3,1
  8030e4:	00800104 	movi	r2,4
  8030e8:	1085883a 	add	r2,r2,r2
  8030ec:	11000504 	addi	r4,r2,20
  8030f0:	180b883a 	mov	r5,r3
  8030f4:	18c00044 	addi	r3,r3,1
  8030f8:	313ffb2e 	bgeu	r6,r4,8030e8 <__alt_mem_onchip_memory2+0xff7e30e8>
  8030fc:	e1401115 	stw	r5,68(fp)
  803100:	e009883a 	mov	r4,fp
  803104:	08064480 	call	806448 <_Balloc>
  803108:	d8800715 	stw	r2,28(sp)
  80310c:	e0801015 	stw	r2,64(fp)
  803110:	00800384 	movi	r2,14
  803114:	1400f736 	bltu	r2,r16,8034f4 <_dtoa_r+0x764>
  803118:	8800f626 	beq	r17,zero,8034f4 <_dtoa_r+0x764>
  80311c:	d9c00517 	ldw	r7,20(sp)
  803120:	01c39a0e 	bge	zero,r7,803f8c <_dtoa_r+0x11fc>
  803124:	388003cc 	andi	r2,r7,15
  803128:	100490fa 	slli	r2,r2,3
  80312c:	382bd13a 	srai	r21,r7,4
  803130:	00c02074 	movhi	r3,129
  803134:	18c1f904 	addi	r3,r3,2020
  803138:	1885883a 	add	r2,r3,r2
  80313c:	a8c0040c 	andi	r3,r21,16
  803140:	12400017 	ldw	r9,0(r2)
  803144:	12000117 	ldw	r8,4(r2)
  803148:	18037926 	beq	r3,zero,803f30 <_dtoa_r+0x11a0>
  80314c:	00802074 	movhi	r2,129
  803150:	1081ef04 	addi	r2,r2,1980
  803154:	11800817 	ldw	r6,32(r2)
  803158:	11c00917 	ldw	r7,36(r2)
  80315c:	9009883a 	mov	r4,r18
  803160:	980b883a 	mov	r5,r19
  803164:	da001715 	stw	r8,92(sp)
  803168:	da401615 	stw	r9,88(sp)
  80316c:	080b5c00 	call	80b5c0 <__divdf3>
  803170:	da001717 	ldw	r8,92(sp)
  803174:	da401617 	ldw	r9,88(sp)
  803178:	ad4003cc 	andi	r21,r21,15
  80317c:	040000c4 	movi	r16,3
  803180:	1023883a 	mov	r17,r2
  803184:	1829883a 	mov	r20,r3
  803188:	a8001126 	beq	r21,zero,8031d0 <_dtoa_r+0x440>
  80318c:	05c02074 	movhi	r23,129
  803190:	bdc1ef04 	addi	r23,r23,1980
  803194:	4805883a 	mov	r2,r9
  803198:	4007883a 	mov	r3,r8
  80319c:	a980004c 	andi	r6,r21,1
  8031a0:	1009883a 	mov	r4,r2
  8031a4:	a82bd07a 	srai	r21,r21,1
  8031a8:	180b883a 	mov	r5,r3
  8031ac:	30000426 	beq	r6,zero,8031c0 <_dtoa_r+0x430>
  8031b0:	b9800017 	ldw	r6,0(r23)
  8031b4:	b9c00117 	ldw	r7,4(r23)
  8031b8:	84000044 	addi	r16,r16,1
  8031bc:	080c1e80 	call	80c1e8 <__muldf3>
  8031c0:	bdc00204 	addi	r23,r23,8
  8031c4:	a83ff51e 	bne	r21,zero,80319c <__alt_mem_onchip_memory2+0xff7e319c>
  8031c8:	1013883a 	mov	r9,r2
  8031cc:	1811883a 	mov	r8,r3
  8031d0:	480d883a 	mov	r6,r9
  8031d4:	400f883a 	mov	r7,r8
  8031d8:	8809883a 	mov	r4,r17
  8031dc:	a00b883a 	mov	r5,r20
  8031e0:	080b5c00 	call	80b5c0 <__divdf3>
  8031e4:	d8800f15 	stw	r2,60(sp)
  8031e8:	d8c01015 	stw	r3,64(sp)
  8031ec:	d8c00e17 	ldw	r3,56(sp)
  8031f0:	18000626 	beq	r3,zero,80320c <_dtoa_r+0x47c>
  8031f4:	d9000f17 	ldw	r4,60(sp)
  8031f8:	d9401017 	ldw	r5,64(sp)
  8031fc:	000d883a 	mov	r6,zero
  803200:	01cffc34 	movhi	r7,16368
  803204:	080c0f40 	call	80c0f4 <__ledf2>
  803208:	10040b16 	blt	r2,zero,804238 <_dtoa_r+0x14a8>
  80320c:	8009883a 	mov	r4,r16
  803210:	080d3d00 	call	80d3d0 <__floatsidf>
  803214:	d9800f17 	ldw	r6,60(sp)
  803218:	d9c01017 	ldw	r7,64(sp)
  80321c:	1009883a 	mov	r4,r2
  803220:	180b883a 	mov	r5,r3
  803224:	080c1e80 	call	80c1e8 <__muldf3>
  803228:	000d883a 	mov	r6,zero
  80322c:	01d00734 	movhi	r7,16412
  803230:	1009883a 	mov	r4,r2
  803234:	180b883a 	mov	r5,r3
  803238:	080ad140 	call	80ad14 <__adddf3>
  80323c:	1021883a 	mov	r16,r2
  803240:	d8800617 	ldw	r2,24(sp)
  803244:	047f3034 	movhi	r17,64704
  803248:	1c63883a 	add	r17,r3,r17
  80324c:	10031826 	beq	r2,zero,803eb0 <_dtoa_r+0x1120>
  803250:	d8c00517 	ldw	r3,20(sp)
  803254:	db000617 	ldw	r12,24(sp)
  803258:	d8c01315 	stw	r3,76(sp)
  80325c:	d9000b17 	ldw	r4,44(sp)
  803260:	20038f26 	beq	r4,zero,8040a0 <_dtoa_r+0x1310>
  803264:	60bfffc4 	addi	r2,r12,-1
  803268:	100490fa 	slli	r2,r2,3
  80326c:	00c02074 	movhi	r3,129
  803270:	18c1f904 	addi	r3,r3,2020
  803274:	1885883a 	add	r2,r3,r2
  803278:	11800017 	ldw	r6,0(r2)
  80327c:	11c00117 	ldw	r7,4(r2)
  803280:	d8800717 	ldw	r2,28(sp)
  803284:	0009883a 	mov	r4,zero
  803288:	014ff834 	movhi	r5,16352
  80328c:	db001615 	stw	r12,88(sp)
  803290:	15c00044 	addi	r23,r2,1
  803294:	080b5c00 	call	80b5c0 <__divdf3>
  803298:	800d883a 	mov	r6,r16
  80329c:	880f883a 	mov	r7,r17
  8032a0:	1009883a 	mov	r4,r2
  8032a4:	180b883a 	mov	r5,r3
  8032a8:	080ca540 	call	80ca54 <__subdf3>
  8032ac:	d9401017 	ldw	r5,64(sp)
  8032b0:	d9000f17 	ldw	r4,60(sp)
  8032b4:	102b883a 	mov	r21,r2
  8032b8:	d8c01215 	stw	r3,72(sp)
  8032bc:	080d3500 	call	80d350 <__fixdfsi>
  8032c0:	1009883a 	mov	r4,r2
  8032c4:	1029883a 	mov	r20,r2
  8032c8:	080d3d00 	call	80d3d0 <__floatsidf>
  8032cc:	d9000f17 	ldw	r4,60(sp)
  8032d0:	d9401017 	ldw	r5,64(sp)
  8032d4:	100d883a 	mov	r6,r2
  8032d8:	180f883a 	mov	r7,r3
  8032dc:	080ca540 	call	80ca54 <__subdf3>
  8032e0:	1823883a 	mov	r17,r3
  8032e4:	d8c00717 	ldw	r3,28(sp)
  8032e8:	d9401217 	ldw	r5,72(sp)
  8032ec:	a2000c04 	addi	r8,r20,48
  8032f0:	1021883a 	mov	r16,r2
  8032f4:	1a000005 	stb	r8,0(r3)
  8032f8:	800d883a 	mov	r6,r16
  8032fc:	880f883a 	mov	r7,r17
  803300:	a809883a 	mov	r4,r21
  803304:	4029883a 	mov	r20,r8
  803308:	080c0180 	call	80c018 <__gedf2>
  80330c:	00841d16 	blt	zero,r2,804384 <_dtoa_r+0x15f4>
  803310:	800d883a 	mov	r6,r16
  803314:	880f883a 	mov	r7,r17
  803318:	0009883a 	mov	r4,zero
  80331c:	014ffc34 	movhi	r5,16368
  803320:	080ca540 	call	80ca54 <__subdf3>
  803324:	d9401217 	ldw	r5,72(sp)
  803328:	100d883a 	mov	r6,r2
  80332c:	180f883a 	mov	r7,r3
  803330:	a809883a 	mov	r4,r21
  803334:	080c0180 	call	80c018 <__gedf2>
  803338:	db001617 	ldw	r12,88(sp)
  80333c:	00840e16 	blt	zero,r2,804378 <_dtoa_r+0x15e8>
  803340:	00800044 	movi	r2,1
  803344:	13006b0e 	bge	r2,r12,8034f4 <_dtoa_r+0x764>
  803348:	d9000717 	ldw	r4,28(sp)
  80334c:	dd800f15 	stw	r22,60(sp)
  803350:	dcc01015 	stw	r19,64(sp)
  803354:	2319883a 	add	r12,r4,r12
  803358:	dcc01217 	ldw	r19,72(sp)
  80335c:	602d883a 	mov	r22,r12
  803360:	dc801215 	stw	r18,72(sp)
  803364:	b825883a 	mov	r18,r23
  803368:	00000906 	br	803390 <_dtoa_r+0x600>
  80336c:	080ca540 	call	80ca54 <__subdf3>
  803370:	a80d883a 	mov	r6,r21
  803374:	980f883a 	mov	r7,r19
  803378:	1009883a 	mov	r4,r2
  80337c:	180b883a 	mov	r5,r3
  803380:	080c0f40 	call	80c0f4 <__ledf2>
  803384:	1003e816 	blt	r2,zero,804328 <_dtoa_r+0x1598>
  803388:	b825883a 	mov	r18,r23
  80338c:	bd83e926 	beq	r23,r22,804334 <_dtoa_r+0x15a4>
  803390:	a809883a 	mov	r4,r21
  803394:	980b883a 	mov	r5,r19
  803398:	000d883a 	mov	r6,zero
  80339c:	01d00934 	movhi	r7,16420
  8033a0:	080c1e80 	call	80c1e8 <__muldf3>
  8033a4:	000d883a 	mov	r6,zero
  8033a8:	01d00934 	movhi	r7,16420
  8033ac:	8009883a 	mov	r4,r16
  8033b0:	880b883a 	mov	r5,r17
  8033b4:	102b883a 	mov	r21,r2
  8033b8:	1827883a 	mov	r19,r3
  8033bc:	080c1e80 	call	80c1e8 <__muldf3>
  8033c0:	180b883a 	mov	r5,r3
  8033c4:	1009883a 	mov	r4,r2
  8033c8:	1821883a 	mov	r16,r3
  8033cc:	1023883a 	mov	r17,r2
  8033d0:	080d3500 	call	80d350 <__fixdfsi>
  8033d4:	1009883a 	mov	r4,r2
  8033d8:	1029883a 	mov	r20,r2
  8033dc:	080d3d00 	call	80d3d0 <__floatsidf>
  8033e0:	8809883a 	mov	r4,r17
  8033e4:	800b883a 	mov	r5,r16
  8033e8:	100d883a 	mov	r6,r2
  8033ec:	180f883a 	mov	r7,r3
  8033f0:	080ca540 	call	80ca54 <__subdf3>
  8033f4:	a5000c04 	addi	r20,r20,48
  8033f8:	a80d883a 	mov	r6,r21
  8033fc:	980f883a 	mov	r7,r19
  803400:	1009883a 	mov	r4,r2
  803404:	180b883a 	mov	r5,r3
  803408:	95000005 	stb	r20,0(r18)
  80340c:	1021883a 	mov	r16,r2
  803410:	1823883a 	mov	r17,r3
  803414:	080c0f40 	call	80c0f4 <__ledf2>
  803418:	bdc00044 	addi	r23,r23,1
  80341c:	800d883a 	mov	r6,r16
  803420:	880f883a 	mov	r7,r17
  803424:	0009883a 	mov	r4,zero
  803428:	014ffc34 	movhi	r5,16368
  80342c:	103fcf0e 	bge	r2,zero,80336c <__alt_mem_onchip_memory2+0xff7e336c>
  803430:	d8c01317 	ldw	r3,76(sp)
  803434:	d8c00515 	stw	r3,20(sp)
  803438:	d9400917 	ldw	r5,36(sp)
  80343c:	e009883a 	mov	r4,fp
  803440:	08064f00 	call	8064f0 <_Bfree>
  803444:	d9000517 	ldw	r4,20(sp)
  803448:	d9802317 	ldw	r6,140(sp)
  80344c:	d9c02517 	ldw	r7,148(sp)
  803450:	b8000005 	stb	zero,0(r23)
  803454:	20800044 	addi	r2,r4,1
  803458:	30800015 	stw	r2,0(r6)
  80345c:	3802aa26 	beq	r7,zero,803f08 <_dtoa_r+0x1178>
  803460:	3dc00015 	stw	r23,0(r7)
  803464:	d8800717 	ldw	r2,28(sp)
  803468:	003e7906 	br	802e50 <__alt_mem_onchip_memory2+0xff7e2e50>
  80346c:	00800434 	movhi	r2,16
  803470:	10bfffc4 	addi	r2,r2,-1
  803474:	88a2703a 	and	r17,r17,r2
  803478:	883e851e 	bne	r17,zero,802e90 <__alt_mem_onchip_memory2+0xff7e2e90>
  80347c:	00802074 	movhi	r2,129
  803480:	1081db04 	addi	r2,r2,1900
  803484:	003e8406 	br	802e98 <__alt_mem_onchip_memory2+0xff7e2e98>
  803488:	10c00204 	addi	r3,r2,8
  80348c:	003e8706 	br	802eac <__alt_mem_onchip_memory2+0xff7e2eac>
  803490:	01400434 	movhi	r5,16
  803494:	297fffc4 	addi	r5,r5,-1
  803498:	994a703a 	and	r5,r19,r5
  80349c:	9009883a 	mov	r4,r18
  8034a0:	843f0044 	addi	r16,r16,-1023
  8034a4:	294ffc34 	orhi	r5,r5,16368
  8034a8:	dd800217 	ldw	r22,8(sp)
  8034ac:	d8001115 	stw	zero,68(sp)
  8034b0:	003ea506 	br	802f48 <__alt_mem_onchip_memory2+0xff7e2f48>
  8034b4:	00802074 	movhi	r2,129
  8034b8:	1081d204 	addi	r2,r2,1864
  8034bc:	003e6406 	br	802e50 <__alt_mem_onchip_memory2+0xff7e2e50>
  8034c0:	e0001115 	stw	zero,68(fp)
  8034c4:	000b883a 	mov	r5,zero
  8034c8:	e009883a 	mov	r4,fp
  8034cc:	08064480 	call	806448 <_Balloc>
  8034d0:	01bfffc4 	movi	r6,-1
  8034d4:	01c00044 	movi	r7,1
  8034d8:	d8800715 	stw	r2,28(sp)
  8034dc:	d9800c15 	stw	r6,48(sp)
  8034e0:	e0801015 	stw	r2,64(fp)
  8034e4:	d8000315 	stw	zero,12(sp)
  8034e8:	d9c00b15 	stw	r7,44(sp)
  8034ec:	d9800615 	stw	r6,24(sp)
  8034f0:	d8002215 	stw	zero,136(sp)
  8034f4:	d8800117 	ldw	r2,4(sp)
  8034f8:	10008916 	blt	r2,zero,803720 <_dtoa_r+0x990>
  8034fc:	d9000517 	ldw	r4,20(sp)
  803500:	00c00384 	movi	r3,14
  803504:	19008616 	blt	r3,r4,803720 <_dtoa_r+0x990>
  803508:	200490fa 	slli	r2,r4,3
  80350c:	00c02074 	movhi	r3,129
  803510:	d9802217 	ldw	r6,136(sp)
  803514:	18c1f904 	addi	r3,r3,2020
  803518:	1885883a 	add	r2,r3,r2
  80351c:	14000017 	ldw	r16,0(r2)
  803520:	14400117 	ldw	r17,4(r2)
  803524:	30016316 	blt	r6,zero,803ab4 <_dtoa_r+0xd24>
  803528:	800d883a 	mov	r6,r16
  80352c:	880f883a 	mov	r7,r17
  803530:	9009883a 	mov	r4,r18
  803534:	980b883a 	mov	r5,r19
  803538:	080b5c00 	call	80b5c0 <__divdf3>
  80353c:	180b883a 	mov	r5,r3
  803540:	1009883a 	mov	r4,r2
  803544:	080d3500 	call	80d350 <__fixdfsi>
  803548:	1009883a 	mov	r4,r2
  80354c:	102b883a 	mov	r21,r2
  803550:	080d3d00 	call	80d3d0 <__floatsidf>
  803554:	800d883a 	mov	r6,r16
  803558:	880f883a 	mov	r7,r17
  80355c:	1009883a 	mov	r4,r2
  803560:	180b883a 	mov	r5,r3
  803564:	080c1e80 	call	80c1e8 <__muldf3>
  803568:	100d883a 	mov	r6,r2
  80356c:	180f883a 	mov	r7,r3
  803570:	9009883a 	mov	r4,r18
  803574:	980b883a 	mov	r5,r19
  803578:	080ca540 	call	80ca54 <__subdf3>
  80357c:	d9c00717 	ldw	r7,28(sp)
  803580:	1009883a 	mov	r4,r2
  803584:	a8800c04 	addi	r2,r21,48
  803588:	38800005 	stb	r2,0(r7)
  80358c:	3dc00044 	addi	r23,r7,1
  803590:	d9c00617 	ldw	r7,24(sp)
  803594:	01800044 	movi	r6,1
  803598:	180b883a 	mov	r5,r3
  80359c:	2005883a 	mov	r2,r4
  8035a0:	39803826 	beq	r7,r6,803684 <_dtoa_r+0x8f4>
  8035a4:	000d883a 	mov	r6,zero
  8035a8:	01d00934 	movhi	r7,16420
  8035ac:	080c1e80 	call	80c1e8 <__muldf3>
  8035b0:	000d883a 	mov	r6,zero
  8035b4:	000f883a 	mov	r7,zero
  8035b8:	1009883a 	mov	r4,r2
  8035bc:	180b883a 	mov	r5,r3
  8035c0:	1025883a 	mov	r18,r2
  8035c4:	1827883a 	mov	r19,r3
  8035c8:	080bf900 	call	80bf90 <__eqdf2>
  8035cc:	103f9a26 	beq	r2,zero,803438 <__alt_mem_onchip_memory2+0xff7e3438>
  8035d0:	d9c00617 	ldw	r7,24(sp)
  8035d4:	d8c00717 	ldw	r3,28(sp)
  8035d8:	b829883a 	mov	r20,r23
  8035dc:	38bfffc4 	addi	r2,r7,-1
  8035e0:	18ad883a 	add	r22,r3,r2
  8035e4:	00000a06 	br	803610 <_dtoa_r+0x880>
  8035e8:	080c1e80 	call	80c1e8 <__muldf3>
  8035ec:	000d883a 	mov	r6,zero
  8035f0:	000f883a 	mov	r7,zero
  8035f4:	1009883a 	mov	r4,r2
  8035f8:	180b883a 	mov	r5,r3
  8035fc:	1025883a 	mov	r18,r2
  803600:	1827883a 	mov	r19,r3
  803604:	b829883a 	mov	r20,r23
  803608:	080bf900 	call	80bf90 <__eqdf2>
  80360c:	103f8a26 	beq	r2,zero,803438 <__alt_mem_onchip_memory2+0xff7e3438>
  803610:	800d883a 	mov	r6,r16
  803614:	880f883a 	mov	r7,r17
  803618:	9009883a 	mov	r4,r18
  80361c:	980b883a 	mov	r5,r19
  803620:	080b5c00 	call	80b5c0 <__divdf3>
  803624:	180b883a 	mov	r5,r3
  803628:	1009883a 	mov	r4,r2
  80362c:	080d3500 	call	80d350 <__fixdfsi>
  803630:	1009883a 	mov	r4,r2
  803634:	102b883a 	mov	r21,r2
  803638:	080d3d00 	call	80d3d0 <__floatsidf>
  80363c:	800d883a 	mov	r6,r16
  803640:	880f883a 	mov	r7,r17
  803644:	1009883a 	mov	r4,r2
  803648:	180b883a 	mov	r5,r3
  80364c:	080c1e80 	call	80c1e8 <__muldf3>
  803650:	100d883a 	mov	r6,r2
  803654:	180f883a 	mov	r7,r3
  803658:	9009883a 	mov	r4,r18
  80365c:	980b883a 	mov	r5,r19
  803660:	080ca540 	call	80ca54 <__subdf3>
  803664:	aa000c04 	addi	r8,r21,48
  803668:	a2000005 	stb	r8,0(r20)
  80366c:	000d883a 	mov	r6,zero
  803670:	01d00934 	movhi	r7,16420
  803674:	1009883a 	mov	r4,r2
  803678:	180b883a 	mov	r5,r3
  80367c:	a5c00044 	addi	r23,r20,1
  803680:	b53fd91e 	bne	r22,r20,8035e8 <__alt_mem_onchip_memory2+0xff7e35e8>
  803684:	100d883a 	mov	r6,r2
  803688:	180f883a 	mov	r7,r3
  80368c:	1009883a 	mov	r4,r2
  803690:	180b883a 	mov	r5,r3
  803694:	080ad140 	call	80ad14 <__adddf3>
  803698:	100d883a 	mov	r6,r2
  80369c:	180f883a 	mov	r7,r3
  8036a0:	8009883a 	mov	r4,r16
  8036a4:	880b883a 	mov	r5,r17
  8036a8:	1027883a 	mov	r19,r2
  8036ac:	1825883a 	mov	r18,r3
  8036b0:	080c0f40 	call	80c0f4 <__ledf2>
  8036b4:	10000816 	blt	r2,zero,8036d8 <_dtoa_r+0x948>
  8036b8:	980d883a 	mov	r6,r19
  8036bc:	900f883a 	mov	r7,r18
  8036c0:	8009883a 	mov	r4,r16
  8036c4:	880b883a 	mov	r5,r17
  8036c8:	080bf900 	call	80bf90 <__eqdf2>
  8036cc:	103f5a1e 	bne	r2,zero,803438 <__alt_mem_onchip_memory2+0xff7e3438>
  8036d0:	ad40004c 	andi	r21,r21,1
  8036d4:	a83f5826 	beq	r21,zero,803438 <__alt_mem_onchip_memory2+0xff7e3438>
  8036d8:	bd3fffc3 	ldbu	r20,-1(r23)
  8036dc:	b8bfffc4 	addi	r2,r23,-1
  8036e0:	1007883a 	mov	r3,r2
  8036e4:	01400e44 	movi	r5,57
  8036e8:	d9800717 	ldw	r6,28(sp)
  8036ec:	00000506 	br	803704 <_dtoa_r+0x974>
  8036f0:	18ffffc4 	addi	r3,r3,-1
  8036f4:	11824726 	beq	r2,r6,804014 <_dtoa_r+0x1284>
  8036f8:	1d000003 	ldbu	r20,0(r3)
  8036fc:	102f883a 	mov	r23,r2
  803700:	10bfffc4 	addi	r2,r2,-1
  803704:	a1003fcc 	andi	r4,r20,255
  803708:	2100201c 	xori	r4,r4,128
  80370c:	213fe004 	addi	r4,r4,-128
  803710:	217ff726 	beq	r4,r5,8036f0 <__alt_mem_onchip_memory2+0xff7e36f0>
  803714:	a2000044 	addi	r8,r20,1
  803718:	12000005 	stb	r8,0(r2)
  80371c:	003f4606 	br	803438 <__alt_mem_onchip_memory2+0xff7e3438>
  803720:	d9000b17 	ldw	r4,44(sp)
  803724:	2000c826 	beq	r4,zero,803a48 <_dtoa_r+0xcb8>
  803728:	d9800317 	ldw	r6,12(sp)
  80372c:	00c00044 	movi	r3,1
  803730:	1980f90e 	bge	r3,r6,803b18 <_dtoa_r+0xd88>
  803734:	d8800617 	ldw	r2,24(sp)
  803738:	d8c00a17 	ldw	r3,40(sp)
  80373c:	157fffc4 	addi	r21,r2,-1
  803740:	1d41f316 	blt	r3,r21,803f10 <_dtoa_r+0x1180>
  803744:	1d6bc83a 	sub	r21,r3,r21
  803748:	d9c00617 	ldw	r7,24(sp)
  80374c:	3802aa16 	blt	r7,zero,8041f8 <_dtoa_r+0x1468>
  803750:	dd000817 	ldw	r20,32(sp)
  803754:	d8800617 	ldw	r2,24(sp)
  803758:	d8c00817 	ldw	r3,32(sp)
  80375c:	01400044 	movi	r5,1
  803760:	e009883a 	mov	r4,fp
  803764:	1887883a 	add	r3,r3,r2
  803768:	d8c00815 	stw	r3,32(sp)
  80376c:	b0ad883a 	add	r22,r22,r2
  803770:	080687c0 	call	80687c <__i2b>
  803774:	1023883a 	mov	r17,r2
  803778:	a0000826 	beq	r20,zero,80379c <_dtoa_r+0xa0c>
  80377c:	0580070e 	bge	zero,r22,80379c <_dtoa_r+0xa0c>
  803780:	a005883a 	mov	r2,r20
  803784:	b500b916 	blt	r22,r20,803a6c <_dtoa_r+0xcdc>
  803788:	d9000817 	ldw	r4,32(sp)
  80378c:	a0a9c83a 	sub	r20,r20,r2
  803790:	b0adc83a 	sub	r22,r22,r2
  803794:	2089c83a 	sub	r4,r4,r2
  803798:	d9000815 	stw	r4,32(sp)
  80379c:	d9800a17 	ldw	r6,40(sp)
  8037a0:	0181810e 	bge	zero,r6,803da8 <_dtoa_r+0x1018>
  8037a4:	d9c00b17 	ldw	r7,44(sp)
  8037a8:	3800b326 	beq	r7,zero,803a78 <_dtoa_r+0xce8>
  8037ac:	a800b226 	beq	r21,zero,803a78 <_dtoa_r+0xce8>
  8037b0:	880b883a 	mov	r5,r17
  8037b4:	a80d883a 	mov	r6,r21
  8037b8:	e009883a 	mov	r4,fp
  8037bc:	0806b440 	call	806b44 <__pow5mult>
  8037c0:	d9800917 	ldw	r6,36(sp)
  8037c4:	100b883a 	mov	r5,r2
  8037c8:	e009883a 	mov	r4,fp
  8037cc:	1023883a 	mov	r17,r2
  8037d0:	08068b80 	call	8068b8 <__multiply>
  8037d4:	1021883a 	mov	r16,r2
  8037d8:	d8800a17 	ldw	r2,40(sp)
  8037dc:	d9400917 	ldw	r5,36(sp)
  8037e0:	e009883a 	mov	r4,fp
  8037e4:	1545c83a 	sub	r2,r2,r21
  8037e8:	d8800a15 	stw	r2,40(sp)
  8037ec:	08064f00 	call	8064f0 <_Bfree>
  8037f0:	d8c00a17 	ldw	r3,40(sp)
  8037f4:	18009f1e 	bne	r3,zero,803a74 <_dtoa_r+0xce4>
  8037f8:	05c00044 	movi	r23,1
  8037fc:	e009883a 	mov	r4,fp
  803800:	b80b883a 	mov	r5,r23
  803804:	080687c0 	call	80687c <__i2b>
  803808:	d9000d17 	ldw	r4,52(sp)
  80380c:	102b883a 	mov	r21,r2
  803810:	2000ce26 	beq	r4,zero,803b4c <_dtoa_r+0xdbc>
  803814:	200d883a 	mov	r6,r4
  803818:	100b883a 	mov	r5,r2
  80381c:	e009883a 	mov	r4,fp
  803820:	0806b440 	call	806b44 <__pow5mult>
  803824:	d9800317 	ldw	r6,12(sp)
  803828:	102b883a 	mov	r21,r2
  80382c:	b981810e 	bge	r23,r6,803e34 <_dtoa_r+0x10a4>
  803830:	0027883a 	mov	r19,zero
  803834:	a8800417 	ldw	r2,16(r21)
  803838:	05c00804 	movi	r23,32
  80383c:	10800104 	addi	r2,r2,4
  803840:	1085883a 	add	r2,r2,r2
  803844:	1085883a 	add	r2,r2,r2
  803848:	a885883a 	add	r2,r21,r2
  80384c:	11000017 	ldw	r4,0(r2)
  803850:	08067640 	call	806764 <__hi0bits>
  803854:	b885c83a 	sub	r2,r23,r2
  803858:	1585883a 	add	r2,r2,r22
  80385c:	108007cc 	andi	r2,r2,31
  803860:	1000b326 	beq	r2,zero,803b30 <_dtoa_r+0xda0>
  803864:	00c00804 	movi	r3,32
  803868:	1887c83a 	sub	r3,r3,r2
  80386c:	01000104 	movi	r4,4
  803870:	20c2cd0e 	bge	r4,r3,8043a8 <_dtoa_r+0x1618>
  803874:	00c00704 	movi	r3,28
  803878:	1885c83a 	sub	r2,r3,r2
  80387c:	d8c00817 	ldw	r3,32(sp)
  803880:	a0a9883a 	add	r20,r20,r2
  803884:	b0ad883a 	add	r22,r22,r2
  803888:	1887883a 	add	r3,r3,r2
  80388c:	d8c00815 	stw	r3,32(sp)
  803890:	d9800817 	ldw	r6,32(sp)
  803894:	0180040e 	bge	zero,r6,8038a8 <_dtoa_r+0xb18>
  803898:	800b883a 	mov	r5,r16
  80389c:	e009883a 	mov	r4,fp
  8038a0:	0806c840 	call	806c84 <__lshift>
  8038a4:	1021883a 	mov	r16,r2
  8038a8:	0580050e 	bge	zero,r22,8038c0 <_dtoa_r+0xb30>
  8038ac:	a80b883a 	mov	r5,r21
  8038b0:	b00d883a 	mov	r6,r22
  8038b4:	e009883a 	mov	r4,fp
  8038b8:	0806c840 	call	806c84 <__lshift>
  8038bc:	102b883a 	mov	r21,r2
  8038c0:	d9c00e17 	ldw	r7,56(sp)
  8038c4:	3801211e 	bne	r7,zero,803d4c <_dtoa_r+0xfbc>
  8038c8:	d9800617 	ldw	r6,24(sp)
  8038cc:	0181380e 	bge	zero,r6,803db0 <_dtoa_r+0x1020>
  8038d0:	d8c00b17 	ldw	r3,44(sp)
  8038d4:	1800ab1e 	bne	r3,zero,803b84 <_dtoa_r+0xdf4>
  8038d8:	dc800717 	ldw	r18,28(sp)
  8038dc:	dcc00617 	ldw	r19,24(sp)
  8038e0:	9029883a 	mov	r20,r18
  8038e4:	00000206 	br	8038f0 <_dtoa_r+0xb60>
  8038e8:	08065180 	call	806518 <__multadd>
  8038ec:	1021883a 	mov	r16,r2
  8038f0:	a80b883a 	mov	r5,r21
  8038f4:	8009883a 	mov	r4,r16
  8038f8:	0802b680 	call	802b68 <quorem>
  8038fc:	10800c04 	addi	r2,r2,48
  803900:	90800005 	stb	r2,0(r18)
  803904:	94800044 	addi	r18,r18,1
  803908:	9507c83a 	sub	r3,r18,r20
  80390c:	000f883a 	mov	r7,zero
  803910:	01800284 	movi	r6,10
  803914:	800b883a 	mov	r5,r16
  803918:	e009883a 	mov	r4,fp
  80391c:	1cfff216 	blt	r3,r19,8038e8 <__alt_mem_onchip_memory2+0xff7e38e8>
  803920:	1011883a 	mov	r8,r2
  803924:	d8800617 	ldw	r2,24(sp)
  803928:	0082370e 	bge	zero,r2,804208 <_dtoa_r+0x1478>
  80392c:	d9000717 	ldw	r4,28(sp)
  803930:	0025883a 	mov	r18,zero
  803934:	20af883a 	add	r23,r4,r2
  803938:	01800044 	movi	r6,1
  80393c:	800b883a 	mov	r5,r16
  803940:	e009883a 	mov	r4,fp
  803944:	da001715 	stw	r8,92(sp)
  803948:	0806c840 	call	806c84 <__lshift>
  80394c:	a80b883a 	mov	r5,r21
  803950:	1009883a 	mov	r4,r2
  803954:	d8800915 	stw	r2,36(sp)
  803958:	0806dcc0 	call	806dcc <__mcmp>
  80395c:	da001717 	ldw	r8,92(sp)
  803960:	0081800e 	bge	zero,r2,803f64 <_dtoa_r+0x11d4>
  803964:	b93fffc3 	ldbu	r4,-1(r23)
  803968:	b8bfffc4 	addi	r2,r23,-1
  80396c:	1007883a 	mov	r3,r2
  803970:	01800e44 	movi	r6,57
  803974:	d9c00717 	ldw	r7,28(sp)
  803978:	00000506 	br	803990 <_dtoa_r+0xc00>
  80397c:	18ffffc4 	addi	r3,r3,-1
  803980:	11c12326 	beq	r2,r7,803e10 <_dtoa_r+0x1080>
  803984:	19000003 	ldbu	r4,0(r3)
  803988:	102f883a 	mov	r23,r2
  80398c:	10bfffc4 	addi	r2,r2,-1
  803990:	21403fcc 	andi	r5,r4,255
  803994:	2940201c 	xori	r5,r5,128
  803998:	297fe004 	addi	r5,r5,-128
  80399c:	29bff726 	beq	r5,r6,80397c <__alt_mem_onchip_memory2+0xff7e397c>
  8039a0:	21000044 	addi	r4,r4,1
  8039a4:	11000005 	stb	r4,0(r2)
  8039a8:	a80b883a 	mov	r5,r21
  8039ac:	e009883a 	mov	r4,fp
  8039b0:	08064f00 	call	8064f0 <_Bfree>
  8039b4:	883ea026 	beq	r17,zero,803438 <__alt_mem_onchip_memory2+0xff7e3438>
  8039b8:	90000426 	beq	r18,zero,8039cc <_dtoa_r+0xc3c>
  8039bc:	94400326 	beq	r18,r17,8039cc <_dtoa_r+0xc3c>
  8039c0:	900b883a 	mov	r5,r18
  8039c4:	e009883a 	mov	r4,fp
  8039c8:	08064f00 	call	8064f0 <_Bfree>
  8039cc:	880b883a 	mov	r5,r17
  8039d0:	e009883a 	mov	r4,fp
  8039d4:	08064f00 	call	8064f0 <_Bfree>
  8039d8:	003e9706 	br	803438 <__alt_mem_onchip_memory2+0xff7e3438>
  8039dc:	01800044 	movi	r6,1
  8039e0:	d9800e15 	stw	r6,56(sp)
  8039e4:	003d9606 	br	803040 <__alt_mem_onchip_memory2+0xff7e3040>
  8039e8:	d8800817 	ldw	r2,32(sp)
  8039ec:	d8c00517 	ldw	r3,20(sp)
  8039f0:	d8000d15 	stw	zero,52(sp)
  8039f4:	10c5c83a 	sub	r2,r2,r3
  8039f8:	00c9c83a 	sub	r4,zero,r3
  8039fc:	d8800815 	stw	r2,32(sp)
  803a00:	d9000a15 	stw	r4,40(sp)
  803a04:	003d9706 	br	803064 <__alt_mem_onchip_memory2+0xff7e3064>
  803a08:	05adc83a 	sub	r22,zero,r22
  803a0c:	dd800815 	stw	r22,32(sp)
  803a10:	002d883a 	mov	r22,zero
  803a14:	003d8e06 	br	803050 <__alt_mem_onchip_memory2+0xff7e3050>
  803a18:	d9000517 	ldw	r4,20(sp)
  803a1c:	080d3d00 	call	80d3d0 <__floatsidf>
  803a20:	100d883a 	mov	r6,r2
  803a24:	180f883a 	mov	r7,r3
  803a28:	a009883a 	mov	r4,r20
  803a2c:	880b883a 	mov	r5,r17
  803a30:	080bf900 	call	80bf90 <__eqdf2>
  803a34:	103d7126 	beq	r2,zero,802ffc <__alt_mem_onchip_memory2+0xff7e2ffc>
  803a38:	d9c00517 	ldw	r7,20(sp)
  803a3c:	39ffffc4 	addi	r7,r7,-1
  803a40:	d9c00515 	stw	r7,20(sp)
  803a44:	003d6d06 	br	802ffc <__alt_mem_onchip_memory2+0xff7e2ffc>
  803a48:	dd400a17 	ldw	r21,40(sp)
  803a4c:	dd000817 	ldw	r20,32(sp)
  803a50:	0023883a 	mov	r17,zero
  803a54:	003f4806 	br	803778 <__alt_mem_onchip_memory2+0xff7e3778>
  803a58:	10e3c83a 	sub	r17,r2,r3
  803a5c:	9448983a 	sll	r4,r18,r17
  803a60:	003d3206 	br	802f2c <__alt_mem_onchip_memory2+0xff7e2f2c>
  803a64:	d8000e15 	stw	zero,56(sp)
  803a68:	003d7506 	br	803040 <__alt_mem_onchip_memory2+0xff7e3040>
  803a6c:	b005883a 	mov	r2,r22
  803a70:	003f4506 	br	803788 <__alt_mem_onchip_memory2+0xff7e3788>
  803a74:	dc000915 	stw	r16,36(sp)
  803a78:	d9800a17 	ldw	r6,40(sp)
  803a7c:	d9400917 	ldw	r5,36(sp)
  803a80:	e009883a 	mov	r4,fp
  803a84:	0806b440 	call	806b44 <__pow5mult>
  803a88:	1021883a 	mov	r16,r2
  803a8c:	003f5a06 	br	8037f8 <__alt_mem_onchip_memory2+0xff7e37f8>
  803a90:	01c00044 	movi	r7,1
  803a94:	d9c00b15 	stw	r7,44(sp)
  803a98:	d8802217 	ldw	r2,136(sp)
  803a9c:	0081280e 	bge	zero,r2,803f40 <_dtoa_r+0x11b0>
  803aa0:	100d883a 	mov	r6,r2
  803aa4:	1021883a 	mov	r16,r2
  803aa8:	d8800c15 	stw	r2,48(sp)
  803aac:	d8800615 	stw	r2,24(sp)
  803ab0:	003d8806 	br	8030d4 <__alt_mem_onchip_memory2+0xff7e30d4>
  803ab4:	d8800617 	ldw	r2,24(sp)
  803ab8:	00be9b16 	blt	zero,r2,803528 <__alt_mem_onchip_memory2+0xff7e3528>
  803abc:	10010f1e 	bne	r2,zero,803efc <_dtoa_r+0x116c>
  803ac0:	880b883a 	mov	r5,r17
  803ac4:	000d883a 	mov	r6,zero
  803ac8:	01d00534 	movhi	r7,16404
  803acc:	8009883a 	mov	r4,r16
  803ad0:	080c1e80 	call	80c1e8 <__muldf3>
  803ad4:	900d883a 	mov	r6,r18
  803ad8:	980f883a 	mov	r7,r19
  803adc:	1009883a 	mov	r4,r2
  803ae0:	180b883a 	mov	r5,r3
  803ae4:	080c0180 	call	80c018 <__gedf2>
  803ae8:	002b883a 	mov	r21,zero
  803aec:	0023883a 	mov	r17,zero
  803af0:	1000bf16 	blt	r2,zero,803df0 <_dtoa_r+0x1060>
  803af4:	d9802217 	ldw	r6,136(sp)
  803af8:	ddc00717 	ldw	r23,28(sp)
  803afc:	018c303a 	nor	r6,zero,r6
  803b00:	d9800515 	stw	r6,20(sp)
  803b04:	a80b883a 	mov	r5,r21
  803b08:	e009883a 	mov	r4,fp
  803b0c:	08064f00 	call	8064f0 <_Bfree>
  803b10:	883e4926 	beq	r17,zero,803438 <__alt_mem_onchip_memory2+0xff7e3438>
  803b14:	003fad06 	br	8039cc <__alt_mem_onchip_memory2+0xff7e39cc>
  803b18:	d9c01117 	ldw	r7,68(sp)
  803b1c:	3801bc26 	beq	r7,zero,804210 <_dtoa_r+0x1480>
  803b20:	10810cc4 	addi	r2,r2,1075
  803b24:	dd400a17 	ldw	r21,40(sp)
  803b28:	dd000817 	ldw	r20,32(sp)
  803b2c:	003f0a06 	br	803758 <__alt_mem_onchip_memory2+0xff7e3758>
  803b30:	00800704 	movi	r2,28
  803b34:	d9000817 	ldw	r4,32(sp)
  803b38:	a0a9883a 	add	r20,r20,r2
  803b3c:	b0ad883a 	add	r22,r22,r2
  803b40:	2089883a 	add	r4,r4,r2
  803b44:	d9000815 	stw	r4,32(sp)
  803b48:	003f5106 	br	803890 <__alt_mem_onchip_memory2+0xff7e3890>
  803b4c:	d8c00317 	ldw	r3,12(sp)
  803b50:	b8c1fc0e 	bge	r23,r3,804344 <_dtoa_r+0x15b4>
  803b54:	0027883a 	mov	r19,zero
  803b58:	b805883a 	mov	r2,r23
  803b5c:	003f3e06 	br	803858 <__alt_mem_onchip_memory2+0xff7e3858>
  803b60:	880b883a 	mov	r5,r17
  803b64:	e009883a 	mov	r4,fp
  803b68:	000f883a 	mov	r7,zero
  803b6c:	01800284 	movi	r6,10
  803b70:	08065180 	call	806518 <__multadd>
  803b74:	d9000c17 	ldw	r4,48(sp)
  803b78:	1023883a 	mov	r17,r2
  803b7c:	0102040e 	bge	zero,r4,804390 <_dtoa_r+0x1600>
  803b80:	d9000615 	stw	r4,24(sp)
  803b84:	0500050e 	bge	zero,r20,803b9c <_dtoa_r+0xe0c>
  803b88:	880b883a 	mov	r5,r17
  803b8c:	a00d883a 	mov	r6,r20
  803b90:	e009883a 	mov	r4,fp
  803b94:	0806c840 	call	806c84 <__lshift>
  803b98:	1023883a 	mov	r17,r2
  803b9c:	9801241e 	bne	r19,zero,804030 <_dtoa_r+0x12a0>
  803ba0:	8829883a 	mov	r20,r17
  803ba4:	d9000617 	ldw	r4,24(sp)
  803ba8:	dcc00717 	ldw	r19,28(sp)
  803bac:	9480004c 	andi	r18,r18,1
  803bb0:	20bfffc4 	addi	r2,r4,-1
  803bb4:	9885883a 	add	r2,r19,r2
  803bb8:	d8800415 	stw	r2,16(sp)
  803bbc:	dc800615 	stw	r18,24(sp)
  803bc0:	a80b883a 	mov	r5,r21
  803bc4:	8009883a 	mov	r4,r16
  803bc8:	0802b680 	call	802b68 <quorem>
  803bcc:	880b883a 	mov	r5,r17
  803bd0:	8009883a 	mov	r4,r16
  803bd4:	102f883a 	mov	r23,r2
  803bd8:	0806dcc0 	call	806dcc <__mcmp>
  803bdc:	a80b883a 	mov	r5,r21
  803be0:	a00d883a 	mov	r6,r20
  803be4:	e009883a 	mov	r4,fp
  803be8:	102d883a 	mov	r22,r2
  803bec:	0806e2c0 	call	806e2c <__mdiff>
  803bf0:	1007883a 	mov	r3,r2
  803bf4:	10800317 	ldw	r2,12(r2)
  803bf8:	bc800c04 	addi	r18,r23,48
  803bfc:	180b883a 	mov	r5,r3
  803c00:	10004e1e 	bne	r2,zero,803d3c <_dtoa_r+0xfac>
  803c04:	8009883a 	mov	r4,r16
  803c08:	d8c01615 	stw	r3,88(sp)
  803c0c:	0806dcc0 	call	806dcc <__mcmp>
  803c10:	d8c01617 	ldw	r3,88(sp)
  803c14:	e009883a 	mov	r4,fp
  803c18:	d8801615 	stw	r2,88(sp)
  803c1c:	180b883a 	mov	r5,r3
  803c20:	08064f00 	call	8064f0 <_Bfree>
  803c24:	d8801617 	ldw	r2,88(sp)
  803c28:	1000041e 	bne	r2,zero,803c3c <_dtoa_r+0xeac>
  803c2c:	d9800317 	ldw	r6,12(sp)
  803c30:	3000021e 	bne	r6,zero,803c3c <_dtoa_r+0xeac>
  803c34:	d8c00617 	ldw	r3,24(sp)
  803c38:	18003726 	beq	r3,zero,803d18 <_dtoa_r+0xf88>
  803c3c:	b0002016 	blt	r22,zero,803cc0 <_dtoa_r+0xf30>
  803c40:	b000041e 	bne	r22,zero,803c54 <_dtoa_r+0xec4>
  803c44:	d9000317 	ldw	r4,12(sp)
  803c48:	2000021e 	bne	r4,zero,803c54 <_dtoa_r+0xec4>
  803c4c:	d8c00617 	ldw	r3,24(sp)
  803c50:	18001b26 	beq	r3,zero,803cc0 <_dtoa_r+0xf30>
  803c54:	00810716 	blt	zero,r2,804074 <_dtoa_r+0x12e4>
  803c58:	d8c00417 	ldw	r3,16(sp)
  803c5c:	9d800044 	addi	r22,r19,1
  803c60:	9c800005 	stb	r18,0(r19)
  803c64:	b02f883a 	mov	r23,r22
  803c68:	98c10626 	beq	r19,r3,804084 <_dtoa_r+0x12f4>
  803c6c:	800b883a 	mov	r5,r16
  803c70:	000f883a 	mov	r7,zero
  803c74:	01800284 	movi	r6,10
  803c78:	e009883a 	mov	r4,fp
  803c7c:	08065180 	call	806518 <__multadd>
  803c80:	1021883a 	mov	r16,r2
  803c84:	000f883a 	mov	r7,zero
  803c88:	01800284 	movi	r6,10
  803c8c:	880b883a 	mov	r5,r17
  803c90:	e009883a 	mov	r4,fp
  803c94:	8d002526 	beq	r17,r20,803d2c <_dtoa_r+0xf9c>
  803c98:	08065180 	call	806518 <__multadd>
  803c9c:	a00b883a 	mov	r5,r20
  803ca0:	000f883a 	mov	r7,zero
  803ca4:	01800284 	movi	r6,10
  803ca8:	e009883a 	mov	r4,fp
  803cac:	1023883a 	mov	r17,r2
  803cb0:	08065180 	call	806518 <__multadd>
  803cb4:	1029883a 	mov	r20,r2
  803cb8:	b027883a 	mov	r19,r22
  803cbc:	003fc006 	br	803bc0 <__alt_mem_onchip_memory2+0xff7e3bc0>
  803cc0:	9011883a 	mov	r8,r18
  803cc4:	00800e0e 	bge	zero,r2,803d00 <_dtoa_r+0xf70>
  803cc8:	800b883a 	mov	r5,r16
  803ccc:	01800044 	movi	r6,1
  803cd0:	e009883a 	mov	r4,fp
  803cd4:	da001715 	stw	r8,92(sp)
  803cd8:	0806c840 	call	806c84 <__lshift>
  803cdc:	a80b883a 	mov	r5,r21
  803ce0:	1009883a 	mov	r4,r2
  803ce4:	1021883a 	mov	r16,r2
  803ce8:	0806dcc0 	call	806dcc <__mcmp>
  803cec:	da001717 	ldw	r8,92(sp)
  803cf0:	0081960e 	bge	zero,r2,80434c <_dtoa_r+0x15bc>
  803cf4:	00800e44 	movi	r2,57
  803cf8:	40817026 	beq	r8,r2,8042bc <_dtoa_r+0x152c>
  803cfc:	ba000c44 	addi	r8,r23,49
  803d00:	8825883a 	mov	r18,r17
  803d04:	9dc00044 	addi	r23,r19,1
  803d08:	9a000005 	stb	r8,0(r19)
  803d0c:	a023883a 	mov	r17,r20
  803d10:	dc000915 	stw	r16,36(sp)
  803d14:	003f2406 	br	8039a8 <__alt_mem_onchip_memory2+0xff7e39a8>
  803d18:	00800e44 	movi	r2,57
  803d1c:	9011883a 	mov	r8,r18
  803d20:	90816626 	beq	r18,r2,8042bc <_dtoa_r+0x152c>
  803d24:	05bff516 	blt	zero,r22,803cfc <__alt_mem_onchip_memory2+0xff7e3cfc>
  803d28:	003ff506 	br	803d00 <__alt_mem_onchip_memory2+0xff7e3d00>
  803d2c:	08065180 	call	806518 <__multadd>
  803d30:	1023883a 	mov	r17,r2
  803d34:	1029883a 	mov	r20,r2
  803d38:	003fdf06 	br	803cb8 <__alt_mem_onchip_memory2+0xff7e3cb8>
  803d3c:	e009883a 	mov	r4,fp
  803d40:	08064f00 	call	8064f0 <_Bfree>
  803d44:	00800044 	movi	r2,1
  803d48:	003fbc06 	br	803c3c <__alt_mem_onchip_memory2+0xff7e3c3c>
  803d4c:	a80b883a 	mov	r5,r21
  803d50:	8009883a 	mov	r4,r16
  803d54:	0806dcc0 	call	806dcc <__mcmp>
  803d58:	103edb0e 	bge	r2,zero,8038c8 <__alt_mem_onchip_memory2+0xff7e38c8>
  803d5c:	800b883a 	mov	r5,r16
  803d60:	000f883a 	mov	r7,zero
  803d64:	01800284 	movi	r6,10
  803d68:	e009883a 	mov	r4,fp
  803d6c:	08065180 	call	806518 <__multadd>
  803d70:	1021883a 	mov	r16,r2
  803d74:	d8800517 	ldw	r2,20(sp)
  803d78:	d8c00b17 	ldw	r3,44(sp)
  803d7c:	10bfffc4 	addi	r2,r2,-1
  803d80:	d8800515 	stw	r2,20(sp)
  803d84:	183f761e 	bne	r3,zero,803b60 <__alt_mem_onchip_memory2+0xff7e3b60>
  803d88:	d9000c17 	ldw	r4,48(sp)
  803d8c:	0101730e 	bge	zero,r4,80435c <_dtoa_r+0x15cc>
  803d90:	d9000615 	stw	r4,24(sp)
  803d94:	003ed006 	br	8038d8 <__alt_mem_onchip_memory2+0xff7e38d8>
  803d98:	00800084 	movi	r2,2
  803d9c:	3081861e 	bne	r6,r2,8043b8 <_dtoa_r+0x1628>
  803da0:	d8000b15 	stw	zero,44(sp)
  803da4:	003f3c06 	br	803a98 <__alt_mem_onchip_memory2+0xff7e3a98>
  803da8:	dc000917 	ldw	r16,36(sp)
  803dac:	003e9206 	br	8037f8 <__alt_mem_onchip_memory2+0xff7e37f8>
  803db0:	d9c00317 	ldw	r7,12(sp)
  803db4:	00800084 	movi	r2,2
  803db8:	11fec50e 	bge	r2,r7,8038d0 <__alt_mem_onchip_memory2+0xff7e38d0>
  803dbc:	d9000617 	ldw	r4,24(sp)
  803dc0:	20013c1e 	bne	r4,zero,8042b4 <_dtoa_r+0x1524>
  803dc4:	a80b883a 	mov	r5,r21
  803dc8:	000f883a 	mov	r7,zero
  803dcc:	01800144 	movi	r6,5
  803dd0:	e009883a 	mov	r4,fp
  803dd4:	08065180 	call	806518 <__multadd>
  803dd8:	100b883a 	mov	r5,r2
  803ddc:	8009883a 	mov	r4,r16
  803de0:	102b883a 	mov	r21,r2
  803de4:	0806dcc0 	call	806dcc <__mcmp>
  803de8:	dc000915 	stw	r16,36(sp)
  803dec:	00bf410e 	bge	zero,r2,803af4 <__alt_mem_onchip_memory2+0xff7e3af4>
  803df0:	d9c00717 	ldw	r7,28(sp)
  803df4:	00800c44 	movi	r2,49
  803df8:	38800005 	stb	r2,0(r7)
  803dfc:	d8800517 	ldw	r2,20(sp)
  803e00:	3dc00044 	addi	r23,r7,1
  803e04:	10800044 	addi	r2,r2,1
  803e08:	d8800515 	stw	r2,20(sp)
  803e0c:	003f3d06 	br	803b04 <__alt_mem_onchip_memory2+0xff7e3b04>
  803e10:	d9800517 	ldw	r6,20(sp)
  803e14:	d9c00717 	ldw	r7,28(sp)
  803e18:	00800c44 	movi	r2,49
  803e1c:	31800044 	addi	r6,r6,1
  803e20:	d9800515 	stw	r6,20(sp)
  803e24:	38800005 	stb	r2,0(r7)
  803e28:	003edf06 	br	8039a8 <__alt_mem_onchip_memory2+0xff7e39a8>
  803e2c:	d8000b15 	stw	zero,44(sp)
  803e30:	003c9f06 	br	8030b0 <__alt_mem_onchip_memory2+0xff7e30b0>
  803e34:	903e7e1e 	bne	r18,zero,803830 <__alt_mem_onchip_memory2+0xff7e3830>
  803e38:	00800434 	movhi	r2,16
  803e3c:	10bfffc4 	addi	r2,r2,-1
  803e40:	9884703a 	and	r2,r19,r2
  803e44:	1000ea1e 	bne	r2,zero,8041f0 <_dtoa_r+0x1460>
  803e48:	9cdffc2c 	andhi	r19,r19,32752
  803e4c:	9800e826 	beq	r19,zero,8041f0 <_dtoa_r+0x1460>
  803e50:	d9c00817 	ldw	r7,32(sp)
  803e54:	b5800044 	addi	r22,r22,1
  803e58:	04c00044 	movi	r19,1
  803e5c:	39c00044 	addi	r7,r7,1
  803e60:	d9c00815 	stw	r7,32(sp)
  803e64:	d8800d17 	ldw	r2,52(sp)
  803e68:	103e721e 	bne	r2,zero,803834 <__alt_mem_onchip_memory2+0xff7e3834>
  803e6c:	00800044 	movi	r2,1
  803e70:	003e7906 	br	803858 <__alt_mem_onchip_memory2+0xff7e3858>
  803e74:	8009883a 	mov	r4,r16
  803e78:	080d3d00 	call	80d3d0 <__floatsidf>
  803e7c:	d9800f17 	ldw	r6,60(sp)
  803e80:	d9c01017 	ldw	r7,64(sp)
  803e84:	1009883a 	mov	r4,r2
  803e88:	180b883a 	mov	r5,r3
  803e8c:	080c1e80 	call	80c1e8 <__muldf3>
  803e90:	000d883a 	mov	r6,zero
  803e94:	01d00734 	movhi	r7,16412
  803e98:	1009883a 	mov	r4,r2
  803e9c:	180b883a 	mov	r5,r3
  803ea0:	080ad140 	call	80ad14 <__adddf3>
  803ea4:	047f3034 	movhi	r17,64704
  803ea8:	1021883a 	mov	r16,r2
  803eac:	1c63883a 	add	r17,r3,r17
  803eb0:	d9000f17 	ldw	r4,60(sp)
  803eb4:	d9401017 	ldw	r5,64(sp)
  803eb8:	000d883a 	mov	r6,zero
  803ebc:	01d00534 	movhi	r7,16404
  803ec0:	080ca540 	call	80ca54 <__subdf3>
  803ec4:	800d883a 	mov	r6,r16
  803ec8:	880f883a 	mov	r7,r17
  803ecc:	1009883a 	mov	r4,r2
  803ed0:	180b883a 	mov	r5,r3
  803ed4:	102b883a 	mov	r21,r2
  803ed8:	1829883a 	mov	r20,r3
  803edc:	080c0180 	call	80c018 <__gedf2>
  803ee0:	00806c16 	blt	zero,r2,804094 <_dtoa_r+0x1304>
  803ee4:	89e0003c 	xorhi	r7,r17,32768
  803ee8:	800d883a 	mov	r6,r16
  803eec:	a809883a 	mov	r4,r21
  803ef0:	a00b883a 	mov	r5,r20
  803ef4:	080c0f40 	call	80c0f4 <__ledf2>
  803ef8:	103d7e0e 	bge	r2,zero,8034f4 <__alt_mem_onchip_memory2+0xff7e34f4>
  803efc:	002b883a 	mov	r21,zero
  803f00:	0023883a 	mov	r17,zero
  803f04:	003efb06 	br	803af4 <__alt_mem_onchip_memory2+0xff7e3af4>
  803f08:	d8800717 	ldw	r2,28(sp)
  803f0c:	003bd006 	br	802e50 <__alt_mem_onchip_memory2+0xff7e2e50>
  803f10:	d9000a17 	ldw	r4,40(sp)
  803f14:	d9800d17 	ldw	r6,52(sp)
  803f18:	dd400a15 	stw	r21,40(sp)
  803f1c:	a905c83a 	sub	r2,r21,r4
  803f20:	308d883a 	add	r6,r6,r2
  803f24:	d9800d15 	stw	r6,52(sp)
  803f28:	002b883a 	mov	r21,zero
  803f2c:	003e0606 	br	803748 <__alt_mem_onchip_memory2+0xff7e3748>
  803f30:	9023883a 	mov	r17,r18
  803f34:	9829883a 	mov	r20,r19
  803f38:	04000084 	movi	r16,2
  803f3c:	003c9206 	br	803188 <__alt_mem_onchip_memory2+0xff7e3188>
  803f40:	04000044 	movi	r16,1
  803f44:	dc000c15 	stw	r16,48(sp)
  803f48:	dc000615 	stw	r16,24(sp)
  803f4c:	dc002215 	stw	r16,136(sp)
  803f50:	e0001115 	stw	zero,68(fp)
  803f54:	000b883a 	mov	r5,zero
  803f58:	003c6906 	br	803100 <__alt_mem_onchip_memory2+0xff7e3100>
  803f5c:	3021883a 	mov	r16,r6
  803f60:	003ffb06 	br	803f50 <__alt_mem_onchip_memory2+0xff7e3f50>
  803f64:	1000021e 	bne	r2,zero,803f70 <_dtoa_r+0x11e0>
  803f68:	4200004c 	andi	r8,r8,1
  803f6c:	403e7d1e 	bne	r8,zero,803964 <__alt_mem_onchip_memory2+0xff7e3964>
  803f70:	01000c04 	movi	r4,48
  803f74:	00000106 	br	803f7c <_dtoa_r+0x11ec>
  803f78:	102f883a 	mov	r23,r2
  803f7c:	b8bfffc4 	addi	r2,r23,-1
  803f80:	10c00007 	ldb	r3,0(r2)
  803f84:	193ffc26 	beq	r3,r4,803f78 <__alt_mem_onchip_memory2+0xff7e3f78>
  803f88:	003e8706 	br	8039a8 <__alt_mem_onchip_memory2+0xff7e39a8>
  803f8c:	d8800517 	ldw	r2,20(sp)
  803f90:	00a3c83a 	sub	r17,zero,r2
  803f94:	8800a426 	beq	r17,zero,804228 <_dtoa_r+0x1498>
  803f98:	888003cc 	andi	r2,r17,15
  803f9c:	100490fa 	slli	r2,r2,3
  803fa0:	00c02074 	movhi	r3,129
  803fa4:	18c1f904 	addi	r3,r3,2020
  803fa8:	1885883a 	add	r2,r3,r2
  803fac:	11800017 	ldw	r6,0(r2)
  803fb0:	11c00117 	ldw	r7,4(r2)
  803fb4:	9009883a 	mov	r4,r18
  803fb8:	980b883a 	mov	r5,r19
  803fbc:	8823d13a 	srai	r17,r17,4
  803fc0:	080c1e80 	call	80c1e8 <__muldf3>
  803fc4:	d8800f15 	stw	r2,60(sp)
  803fc8:	d8c01015 	stw	r3,64(sp)
  803fcc:	8800e826 	beq	r17,zero,804370 <_dtoa_r+0x15e0>
  803fd0:	05002074 	movhi	r20,129
  803fd4:	a501ef04 	addi	r20,r20,1980
  803fd8:	04000084 	movi	r16,2
  803fdc:	8980004c 	andi	r6,r17,1
  803fe0:	1009883a 	mov	r4,r2
  803fe4:	8823d07a 	srai	r17,r17,1
  803fe8:	180b883a 	mov	r5,r3
  803fec:	30000426 	beq	r6,zero,804000 <_dtoa_r+0x1270>
  803ff0:	a1800017 	ldw	r6,0(r20)
  803ff4:	a1c00117 	ldw	r7,4(r20)
  803ff8:	84000044 	addi	r16,r16,1
  803ffc:	080c1e80 	call	80c1e8 <__muldf3>
  804000:	a5000204 	addi	r20,r20,8
  804004:	883ff51e 	bne	r17,zero,803fdc <__alt_mem_onchip_memory2+0xff7e3fdc>
  804008:	d8800f15 	stw	r2,60(sp)
  80400c:	d8c01015 	stw	r3,64(sp)
  804010:	003c7606 	br	8031ec <__alt_mem_onchip_memory2+0xff7e31ec>
  804014:	00c00c04 	movi	r3,48
  804018:	10c00005 	stb	r3,0(r2)
  80401c:	d8c00517 	ldw	r3,20(sp)
  804020:	bd3fffc3 	ldbu	r20,-1(r23)
  804024:	18c00044 	addi	r3,r3,1
  804028:	d8c00515 	stw	r3,20(sp)
  80402c:	003db906 	br	803714 <__alt_mem_onchip_memory2+0xff7e3714>
  804030:	89400117 	ldw	r5,4(r17)
  804034:	e009883a 	mov	r4,fp
  804038:	08064480 	call	806448 <_Balloc>
  80403c:	89800417 	ldw	r6,16(r17)
  804040:	89400304 	addi	r5,r17,12
  804044:	11000304 	addi	r4,r2,12
  804048:	31800084 	addi	r6,r6,2
  80404c:	318d883a 	add	r6,r6,r6
  804050:	318d883a 	add	r6,r6,r6
  804054:	1027883a 	mov	r19,r2
  804058:	080607c0 	call	80607c <memcpy>
  80405c:	01800044 	movi	r6,1
  804060:	980b883a 	mov	r5,r19
  804064:	e009883a 	mov	r4,fp
  804068:	0806c840 	call	806c84 <__lshift>
  80406c:	1029883a 	mov	r20,r2
  804070:	003ecc06 	br	803ba4 <__alt_mem_onchip_memory2+0xff7e3ba4>
  804074:	00800e44 	movi	r2,57
  804078:	90809026 	beq	r18,r2,8042bc <_dtoa_r+0x152c>
  80407c:	92000044 	addi	r8,r18,1
  804080:	003f1f06 	br	803d00 <__alt_mem_onchip_memory2+0xff7e3d00>
  804084:	9011883a 	mov	r8,r18
  804088:	8825883a 	mov	r18,r17
  80408c:	a023883a 	mov	r17,r20
  804090:	003e2906 	br	803938 <__alt_mem_onchip_memory2+0xff7e3938>
  804094:	002b883a 	mov	r21,zero
  804098:	0023883a 	mov	r17,zero
  80409c:	003f5406 	br	803df0 <__alt_mem_onchip_memory2+0xff7e3df0>
  8040a0:	61bfffc4 	addi	r6,r12,-1
  8040a4:	300490fa 	slli	r2,r6,3
  8040a8:	00c02074 	movhi	r3,129
  8040ac:	18c1f904 	addi	r3,r3,2020
  8040b0:	1885883a 	add	r2,r3,r2
  8040b4:	11000017 	ldw	r4,0(r2)
  8040b8:	11400117 	ldw	r5,4(r2)
  8040bc:	d8800717 	ldw	r2,28(sp)
  8040c0:	880f883a 	mov	r7,r17
  8040c4:	d9801215 	stw	r6,72(sp)
  8040c8:	800d883a 	mov	r6,r16
  8040cc:	db001615 	stw	r12,88(sp)
  8040d0:	15c00044 	addi	r23,r2,1
  8040d4:	080c1e80 	call	80c1e8 <__muldf3>
  8040d8:	d9401017 	ldw	r5,64(sp)
  8040dc:	d9000f17 	ldw	r4,60(sp)
  8040e0:	d8c01515 	stw	r3,84(sp)
  8040e4:	d8801415 	stw	r2,80(sp)
  8040e8:	080d3500 	call	80d350 <__fixdfsi>
  8040ec:	1009883a 	mov	r4,r2
  8040f0:	1021883a 	mov	r16,r2
  8040f4:	080d3d00 	call	80d3d0 <__floatsidf>
  8040f8:	d9000f17 	ldw	r4,60(sp)
  8040fc:	d9401017 	ldw	r5,64(sp)
  804100:	100d883a 	mov	r6,r2
  804104:	180f883a 	mov	r7,r3
  804108:	080ca540 	call	80ca54 <__subdf3>
  80410c:	1829883a 	mov	r20,r3
  804110:	d8c00717 	ldw	r3,28(sp)
  804114:	84000c04 	addi	r16,r16,48
  804118:	1023883a 	mov	r17,r2
  80411c:	1c000005 	stb	r16,0(r3)
  804120:	db001617 	ldw	r12,88(sp)
  804124:	00800044 	movi	r2,1
  804128:	60802226 	beq	r12,r2,8041b4 <_dtoa_r+0x1424>
  80412c:	d9c00717 	ldw	r7,28(sp)
  804130:	8805883a 	mov	r2,r17
  804134:	b82b883a 	mov	r21,r23
  804138:	3b19883a 	add	r12,r7,r12
  80413c:	6023883a 	mov	r17,r12
  804140:	a007883a 	mov	r3,r20
  804144:	dc800f15 	stw	r18,60(sp)
  804148:	000d883a 	mov	r6,zero
  80414c:	01d00934 	movhi	r7,16420
  804150:	1009883a 	mov	r4,r2
  804154:	180b883a 	mov	r5,r3
  804158:	080c1e80 	call	80c1e8 <__muldf3>
  80415c:	180b883a 	mov	r5,r3
  804160:	1009883a 	mov	r4,r2
  804164:	1829883a 	mov	r20,r3
  804168:	1025883a 	mov	r18,r2
  80416c:	080d3500 	call	80d350 <__fixdfsi>
  804170:	1009883a 	mov	r4,r2
  804174:	1021883a 	mov	r16,r2
  804178:	080d3d00 	call	80d3d0 <__floatsidf>
  80417c:	100d883a 	mov	r6,r2
  804180:	180f883a 	mov	r7,r3
  804184:	9009883a 	mov	r4,r18
  804188:	a00b883a 	mov	r5,r20
  80418c:	84000c04 	addi	r16,r16,48
  804190:	080ca540 	call	80ca54 <__subdf3>
  804194:	ad400044 	addi	r21,r21,1
  804198:	ac3fffc5 	stb	r16,-1(r21)
  80419c:	ac7fea1e 	bne	r21,r17,804148 <__alt_mem_onchip_memory2+0xff7e4148>
  8041a0:	1023883a 	mov	r17,r2
  8041a4:	d8801217 	ldw	r2,72(sp)
  8041a8:	dc800f17 	ldw	r18,60(sp)
  8041ac:	1829883a 	mov	r20,r3
  8041b0:	b8af883a 	add	r23,r23,r2
  8041b4:	d9001417 	ldw	r4,80(sp)
  8041b8:	d9401517 	ldw	r5,84(sp)
  8041bc:	000d883a 	mov	r6,zero
  8041c0:	01cff834 	movhi	r7,16352
  8041c4:	080ad140 	call	80ad14 <__adddf3>
  8041c8:	880d883a 	mov	r6,r17
  8041cc:	a00f883a 	mov	r7,r20
  8041d0:	1009883a 	mov	r4,r2
  8041d4:	180b883a 	mov	r5,r3
  8041d8:	080c0f40 	call	80c0f4 <__ledf2>
  8041dc:	10003e0e 	bge	r2,zero,8042d8 <_dtoa_r+0x1548>
  8041e0:	d9001317 	ldw	r4,76(sp)
  8041e4:	bd3fffc3 	ldbu	r20,-1(r23)
  8041e8:	d9000515 	stw	r4,20(sp)
  8041ec:	003d3b06 	br	8036dc <__alt_mem_onchip_memory2+0xff7e36dc>
  8041f0:	0027883a 	mov	r19,zero
  8041f4:	003f1b06 	br	803e64 <__alt_mem_onchip_memory2+0xff7e3e64>
  8041f8:	d8800817 	ldw	r2,32(sp)
  8041fc:	11e9c83a 	sub	r20,r2,r7
  804200:	0005883a 	mov	r2,zero
  804204:	003d5406 	br	803758 <__alt_mem_onchip_memory2+0xff7e3758>
  804208:	00800044 	movi	r2,1
  80420c:	003dc706 	br	80392c <__alt_mem_onchip_memory2+0xff7e392c>
  804210:	d8c00217 	ldw	r3,8(sp)
  804214:	00800d84 	movi	r2,54
  804218:	dd400a17 	ldw	r21,40(sp)
  80421c:	10c5c83a 	sub	r2,r2,r3
  804220:	dd000817 	ldw	r20,32(sp)
  804224:	003d4c06 	br	803758 <__alt_mem_onchip_memory2+0xff7e3758>
  804228:	dc800f15 	stw	r18,60(sp)
  80422c:	dcc01015 	stw	r19,64(sp)
  804230:	04000084 	movi	r16,2
  804234:	003bed06 	br	8031ec <__alt_mem_onchip_memory2+0xff7e31ec>
  804238:	d9000617 	ldw	r4,24(sp)
  80423c:	203f0d26 	beq	r4,zero,803e74 <__alt_mem_onchip_memory2+0xff7e3e74>
  804240:	d9800c17 	ldw	r6,48(sp)
  804244:	01bcab0e 	bge	zero,r6,8034f4 <__alt_mem_onchip_memory2+0xff7e34f4>
  804248:	d9401017 	ldw	r5,64(sp)
  80424c:	d9000f17 	ldw	r4,60(sp)
  804250:	000d883a 	mov	r6,zero
  804254:	01d00934 	movhi	r7,16420
  804258:	080c1e80 	call	80c1e8 <__muldf3>
  80425c:	81000044 	addi	r4,r16,1
  804260:	d8800f15 	stw	r2,60(sp)
  804264:	d8c01015 	stw	r3,64(sp)
  804268:	080d3d00 	call	80d3d0 <__floatsidf>
  80426c:	d9800f17 	ldw	r6,60(sp)
  804270:	d9c01017 	ldw	r7,64(sp)
  804274:	1009883a 	mov	r4,r2
  804278:	180b883a 	mov	r5,r3
  80427c:	080c1e80 	call	80c1e8 <__muldf3>
  804280:	01d00734 	movhi	r7,16412
  804284:	000d883a 	mov	r6,zero
  804288:	1009883a 	mov	r4,r2
  80428c:	180b883a 	mov	r5,r3
  804290:	080ad140 	call	80ad14 <__adddf3>
  804294:	d9c00517 	ldw	r7,20(sp)
  804298:	047f3034 	movhi	r17,64704
  80429c:	1021883a 	mov	r16,r2
  8042a0:	39ffffc4 	addi	r7,r7,-1
  8042a4:	d9c01315 	stw	r7,76(sp)
  8042a8:	1c63883a 	add	r17,r3,r17
  8042ac:	db000c17 	ldw	r12,48(sp)
  8042b0:	003bea06 	br	80325c <__alt_mem_onchip_memory2+0xff7e325c>
  8042b4:	dc000915 	stw	r16,36(sp)
  8042b8:	003e0e06 	br	803af4 <__alt_mem_onchip_memory2+0xff7e3af4>
  8042bc:	01000e44 	movi	r4,57
  8042c0:	8825883a 	mov	r18,r17
  8042c4:	9dc00044 	addi	r23,r19,1
  8042c8:	99000005 	stb	r4,0(r19)
  8042cc:	a023883a 	mov	r17,r20
  8042d0:	dc000915 	stw	r16,36(sp)
  8042d4:	003da406 	br	803968 <__alt_mem_onchip_memory2+0xff7e3968>
  8042d8:	d9801417 	ldw	r6,80(sp)
  8042dc:	d9c01517 	ldw	r7,84(sp)
  8042e0:	0009883a 	mov	r4,zero
  8042e4:	014ff834 	movhi	r5,16352
  8042e8:	080ca540 	call	80ca54 <__subdf3>
  8042ec:	880d883a 	mov	r6,r17
  8042f0:	a00f883a 	mov	r7,r20
  8042f4:	1009883a 	mov	r4,r2
  8042f8:	180b883a 	mov	r5,r3
  8042fc:	080c0180 	call	80c018 <__gedf2>
  804300:	00bc7c0e 	bge	zero,r2,8034f4 <__alt_mem_onchip_memory2+0xff7e34f4>
  804304:	01000c04 	movi	r4,48
  804308:	00000106 	br	804310 <_dtoa_r+0x1580>
  80430c:	102f883a 	mov	r23,r2
  804310:	b8bfffc4 	addi	r2,r23,-1
  804314:	10c00007 	ldb	r3,0(r2)
  804318:	193ffc26 	beq	r3,r4,80430c <__alt_mem_onchip_memory2+0xff7e430c>
  80431c:	d9801317 	ldw	r6,76(sp)
  804320:	d9800515 	stw	r6,20(sp)
  804324:	003c4406 	br	803438 <__alt_mem_onchip_memory2+0xff7e3438>
  804328:	d9801317 	ldw	r6,76(sp)
  80432c:	d9800515 	stw	r6,20(sp)
  804330:	003cea06 	br	8036dc <__alt_mem_onchip_memory2+0xff7e36dc>
  804334:	dd800f17 	ldw	r22,60(sp)
  804338:	dcc01017 	ldw	r19,64(sp)
  80433c:	dc801217 	ldw	r18,72(sp)
  804340:	003c6c06 	br	8034f4 <__alt_mem_onchip_memory2+0xff7e34f4>
  804344:	903e031e 	bne	r18,zero,803b54 <__alt_mem_onchip_memory2+0xff7e3b54>
  804348:	003ebb06 	br	803e38 <__alt_mem_onchip_memory2+0xff7e3e38>
  80434c:	103e6c1e 	bne	r2,zero,803d00 <__alt_mem_onchip_memory2+0xff7e3d00>
  804350:	4080004c 	andi	r2,r8,1
  804354:	103e6a26 	beq	r2,zero,803d00 <__alt_mem_onchip_memory2+0xff7e3d00>
  804358:	003e6606 	br	803cf4 <__alt_mem_onchip_memory2+0xff7e3cf4>
  80435c:	d8c00317 	ldw	r3,12(sp)
  804360:	00800084 	movi	r2,2
  804364:	10c02916 	blt	r2,r3,80440c <_dtoa_r+0x167c>
  804368:	d9000c17 	ldw	r4,48(sp)
  80436c:	003e8806 	br	803d90 <__alt_mem_onchip_memory2+0xff7e3d90>
  804370:	04000084 	movi	r16,2
  804374:	003b9d06 	br	8031ec <__alt_mem_onchip_memory2+0xff7e31ec>
  804378:	d9001317 	ldw	r4,76(sp)
  80437c:	d9000515 	stw	r4,20(sp)
  804380:	003cd606 	br	8036dc <__alt_mem_onchip_memory2+0xff7e36dc>
  804384:	d8801317 	ldw	r2,76(sp)
  804388:	d8800515 	stw	r2,20(sp)
  80438c:	003c2a06 	br	803438 <__alt_mem_onchip_memory2+0xff7e3438>
  804390:	d9800317 	ldw	r6,12(sp)
  804394:	00800084 	movi	r2,2
  804398:	11801516 	blt	r2,r6,8043f0 <_dtoa_r+0x1660>
  80439c:	d9c00c17 	ldw	r7,48(sp)
  8043a0:	d9c00615 	stw	r7,24(sp)
  8043a4:	003df706 	br	803b84 <__alt_mem_onchip_memory2+0xff7e3b84>
  8043a8:	193d3926 	beq	r3,r4,803890 <__alt_mem_onchip_memory2+0xff7e3890>
  8043ac:	00c00f04 	movi	r3,60
  8043b0:	1885c83a 	sub	r2,r3,r2
  8043b4:	003ddf06 	br	803b34 <__alt_mem_onchip_memory2+0xff7e3b34>
  8043b8:	e009883a 	mov	r4,fp
  8043bc:	e0001115 	stw	zero,68(fp)
  8043c0:	000b883a 	mov	r5,zero
  8043c4:	08064480 	call	806448 <_Balloc>
  8043c8:	d8800715 	stw	r2,28(sp)
  8043cc:	d8c00717 	ldw	r3,28(sp)
  8043d0:	00bfffc4 	movi	r2,-1
  8043d4:	01000044 	movi	r4,1
  8043d8:	d8800c15 	stw	r2,48(sp)
  8043dc:	e0c01015 	stw	r3,64(fp)
  8043e0:	d9000b15 	stw	r4,44(sp)
  8043e4:	d8800615 	stw	r2,24(sp)
  8043e8:	d8002215 	stw	zero,136(sp)
  8043ec:	003c4106 	br	8034f4 <__alt_mem_onchip_memory2+0xff7e34f4>
  8043f0:	d8c00c17 	ldw	r3,48(sp)
  8043f4:	d8c00615 	stw	r3,24(sp)
  8043f8:	003e7006 	br	803dbc <__alt_mem_onchip_memory2+0xff7e3dbc>
  8043fc:	04400044 	movi	r17,1
  804400:	003b2006 	br	803084 <__alt_mem_onchip_memory2+0xff7e3084>
  804404:	000b883a 	mov	r5,zero
  804408:	003b3d06 	br	803100 <__alt_mem_onchip_memory2+0xff7e3100>
  80440c:	d8800c17 	ldw	r2,48(sp)
  804410:	d8800615 	stw	r2,24(sp)
  804414:	003e6906 	br	803dbc <__alt_mem_onchip_memory2+0xff7e3dbc>

00804418 <__sflush_r>:
  804418:	2880030b 	ldhu	r2,12(r5)
  80441c:	defffb04 	addi	sp,sp,-20
  804420:	dcc00315 	stw	r19,12(sp)
  804424:	dc400115 	stw	r17,4(sp)
  804428:	dfc00415 	stw	ra,16(sp)
  80442c:	dc800215 	stw	r18,8(sp)
  804430:	dc000015 	stw	r16,0(sp)
  804434:	10c0020c 	andi	r3,r2,8
  804438:	2823883a 	mov	r17,r5
  80443c:	2027883a 	mov	r19,r4
  804440:	1800311e 	bne	r3,zero,804508 <__sflush_r+0xf0>
  804444:	28c00117 	ldw	r3,4(r5)
  804448:	10820014 	ori	r2,r2,2048
  80444c:	2880030d 	sth	r2,12(r5)
  804450:	00c04b0e 	bge	zero,r3,804580 <__sflush_r+0x168>
  804454:	8a000a17 	ldw	r8,40(r17)
  804458:	40002326 	beq	r8,zero,8044e8 <__sflush_r+0xd0>
  80445c:	9c000017 	ldw	r16,0(r19)
  804460:	10c4000c 	andi	r3,r2,4096
  804464:	98000015 	stw	zero,0(r19)
  804468:	18004826 	beq	r3,zero,80458c <__sflush_r+0x174>
  80446c:	89801417 	ldw	r6,80(r17)
  804470:	10c0010c 	andi	r3,r2,4
  804474:	18000626 	beq	r3,zero,804490 <__sflush_r+0x78>
  804478:	88c00117 	ldw	r3,4(r17)
  80447c:	88800c17 	ldw	r2,48(r17)
  804480:	30cdc83a 	sub	r6,r6,r3
  804484:	10000226 	beq	r2,zero,804490 <__sflush_r+0x78>
  804488:	88800f17 	ldw	r2,60(r17)
  80448c:	308dc83a 	sub	r6,r6,r2
  804490:	89400717 	ldw	r5,28(r17)
  804494:	000f883a 	mov	r7,zero
  804498:	9809883a 	mov	r4,r19
  80449c:	403ee83a 	callr	r8
  8044a0:	00ffffc4 	movi	r3,-1
  8044a4:	10c04426 	beq	r2,r3,8045b8 <__sflush_r+0x1a0>
  8044a8:	88c0030b 	ldhu	r3,12(r17)
  8044ac:	89000417 	ldw	r4,16(r17)
  8044b0:	88000115 	stw	zero,4(r17)
  8044b4:	197dffcc 	andi	r5,r3,63487
  8044b8:	8940030d 	sth	r5,12(r17)
  8044bc:	89000015 	stw	r4,0(r17)
  8044c0:	18c4000c 	andi	r3,r3,4096
  8044c4:	18002c1e 	bne	r3,zero,804578 <__sflush_r+0x160>
  8044c8:	89400c17 	ldw	r5,48(r17)
  8044cc:	9c000015 	stw	r16,0(r19)
  8044d0:	28000526 	beq	r5,zero,8044e8 <__sflush_r+0xd0>
  8044d4:	88801004 	addi	r2,r17,64
  8044d8:	28800226 	beq	r5,r2,8044e4 <__sflush_r+0xcc>
  8044dc:	9809883a 	mov	r4,r19
  8044e0:	0804b940 	call	804b94 <_free_r>
  8044e4:	88000c15 	stw	zero,48(r17)
  8044e8:	0005883a 	mov	r2,zero
  8044ec:	dfc00417 	ldw	ra,16(sp)
  8044f0:	dcc00317 	ldw	r19,12(sp)
  8044f4:	dc800217 	ldw	r18,8(sp)
  8044f8:	dc400117 	ldw	r17,4(sp)
  8044fc:	dc000017 	ldw	r16,0(sp)
  804500:	dec00504 	addi	sp,sp,20
  804504:	f800283a 	ret
  804508:	2c800417 	ldw	r18,16(r5)
  80450c:	903ff626 	beq	r18,zero,8044e8 <__alt_mem_onchip_memory2+0xff7e44e8>
  804510:	2c000017 	ldw	r16,0(r5)
  804514:	108000cc 	andi	r2,r2,3
  804518:	2c800015 	stw	r18,0(r5)
  80451c:	84a1c83a 	sub	r16,r16,r18
  804520:	1000131e 	bne	r2,zero,804570 <__sflush_r+0x158>
  804524:	28800517 	ldw	r2,20(r5)
  804528:	88800215 	stw	r2,8(r17)
  80452c:	04000316 	blt	zero,r16,80453c <__sflush_r+0x124>
  804530:	003fed06 	br	8044e8 <__alt_mem_onchip_memory2+0xff7e44e8>
  804534:	90a5883a 	add	r18,r18,r2
  804538:	043feb0e 	bge	zero,r16,8044e8 <__alt_mem_onchip_memory2+0xff7e44e8>
  80453c:	88800917 	ldw	r2,36(r17)
  804540:	89400717 	ldw	r5,28(r17)
  804544:	800f883a 	mov	r7,r16
  804548:	900d883a 	mov	r6,r18
  80454c:	9809883a 	mov	r4,r19
  804550:	103ee83a 	callr	r2
  804554:	80a1c83a 	sub	r16,r16,r2
  804558:	00bff616 	blt	zero,r2,804534 <__alt_mem_onchip_memory2+0xff7e4534>
  80455c:	88c0030b 	ldhu	r3,12(r17)
  804560:	00bfffc4 	movi	r2,-1
  804564:	18c01014 	ori	r3,r3,64
  804568:	88c0030d 	sth	r3,12(r17)
  80456c:	003fdf06 	br	8044ec <__alt_mem_onchip_memory2+0xff7e44ec>
  804570:	0005883a 	mov	r2,zero
  804574:	003fec06 	br	804528 <__alt_mem_onchip_memory2+0xff7e4528>
  804578:	88801415 	stw	r2,80(r17)
  80457c:	003fd206 	br	8044c8 <__alt_mem_onchip_memory2+0xff7e44c8>
  804580:	28c00f17 	ldw	r3,60(r5)
  804584:	00ffb316 	blt	zero,r3,804454 <__alt_mem_onchip_memory2+0xff7e4454>
  804588:	003fd706 	br	8044e8 <__alt_mem_onchip_memory2+0xff7e44e8>
  80458c:	89400717 	ldw	r5,28(r17)
  804590:	000d883a 	mov	r6,zero
  804594:	01c00044 	movi	r7,1
  804598:	9809883a 	mov	r4,r19
  80459c:	403ee83a 	callr	r8
  8045a0:	100d883a 	mov	r6,r2
  8045a4:	00bfffc4 	movi	r2,-1
  8045a8:	30801426 	beq	r6,r2,8045fc <__sflush_r+0x1e4>
  8045ac:	8880030b 	ldhu	r2,12(r17)
  8045b0:	8a000a17 	ldw	r8,40(r17)
  8045b4:	003fae06 	br	804470 <__alt_mem_onchip_memory2+0xff7e4470>
  8045b8:	98c00017 	ldw	r3,0(r19)
  8045bc:	183fba26 	beq	r3,zero,8044a8 <__alt_mem_onchip_memory2+0xff7e44a8>
  8045c0:	01000744 	movi	r4,29
  8045c4:	19000626 	beq	r3,r4,8045e0 <__sflush_r+0x1c8>
  8045c8:	01000584 	movi	r4,22
  8045cc:	19000426 	beq	r3,r4,8045e0 <__sflush_r+0x1c8>
  8045d0:	88c0030b 	ldhu	r3,12(r17)
  8045d4:	18c01014 	ori	r3,r3,64
  8045d8:	88c0030d 	sth	r3,12(r17)
  8045dc:	003fc306 	br	8044ec <__alt_mem_onchip_memory2+0xff7e44ec>
  8045e0:	8880030b 	ldhu	r2,12(r17)
  8045e4:	88c00417 	ldw	r3,16(r17)
  8045e8:	88000115 	stw	zero,4(r17)
  8045ec:	10bdffcc 	andi	r2,r2,63487
  8045f0:	8880030d 	sth	r2,12(r17)
  8045f4:	88c00015 	stw	r3,0(r17)
  8045f8:	003fb306 	br	8044c8 <__alt_mem_onchip_memory2+0xff7e44c8>
  8045fc:	98800017 	ldw	r2,0(r19)
  804600:	103fea26 	beq	r2,zero,8045ac <__alt_mem_onchip_memory2+0xff7e45ac>
  804604:	00c00744 	movi	r3,29
  804608:	10c00226 	beq	r2,r3,804614 <__sflush_r+0x1fc>
  80460c:	00c00584 	movi	r3,22
  804610:	10c0031e 	bne	r2,r3,804620 <__sflush_r+0x208>
  804614:	9c000015 	stw	r16,0(r19)
  804618:	0005883a 	mov	r2,zero
  80461c:	003fb306 	br	8044ec <__alt_mem_onchip_memory2+0xff7e44ec>
  804620:	88c0030b 	ldhu	r3,12(r17)
  804624:	3005883a 	mov	r2,r6
  804628:	18c01014 	ori	r3,r3,64
  80462c:	88c0030d 	sth	r3,12(r17)
  804630:	003fae06 	br	8044ec <__alt_mem_onchip_memory2+0xff7e44ec>

00804634 <_fflush_r>:
  804634:	defffd04 	addi	sp,sp,-12
  804638:	dc000115 	stw	r16,4(sp)
  80463c:	dfc00215 	stw	ra,8(sp)
  804640:	2021883a 	mov	r16,r4
  804644:	20000226 	beq	r4,zero,804650 <_fflush_r+0x1c>
  804648:	20800e17 	ldw	r2,56(r4)
  80464c:	10000c26 	beq	r2,zero,804680 <_fflush_r+0x4c>
  804650:	2880030f 	ldh	r2,12(r5)
  804654:	1000051e 	bne	r2,zero,80466c <_fflush_r+0x38>
  804658:	0005883a 	mov	r2,zero
  80465c:	dfc00217 	ldw	ra,8(sp)
  804660:	dc000117 	ldw	r16,4(sp)
  804664:	dec00304 	addi	sp,sp,12
  804668:	f800283a 	ret
  80466c:	8009883a 	mov	r4,r16
  804670:	dfc00217 	ldw	ra,8(sp)
  804674:	dc000117 	ldw	r16,4(sp)
  804678:	dec00304 	addi	sp,sp,12
  80467c:	08044181 	jmpi	804418 <__sflush_r>
  804680:	d9400015 	stw	r5,0(sp)
  804684:	0804a200 	call	804a20 <__sinit>
  804688:	d9400017 	ldw	r5,0(sp)
  80468c:	003ff006 	br	804650 <__alt_mem_onchip_memory2+0xff7e4650>

00804690 <fflush>:
  804690:	20000526 	beq	r4,zero,8046a8 <fflush+0x18>
  804694:	00802074 	movhi	r2,129
  804698:	10895e04 	addi	r2,r2,9592
  80469c:	200b883a 	mov	r5,r4
  8046a0:	11000017 	ldw	r4,0(r2)
  8046a4:	08046341 	jmpi	804634 <_fflush_r>
  8046a8:	00802074 	movhi	r2,129
  8046ac:	10895d04 	addi	r2,r2,9588
  8046b0:	11000017 	ldw	r4,0(r2)
  8046b4:	01402034 	movhi	r5,128
  8046b8:	29518d04 	addi	r5,r5,17972
  8046bc:	08054301 	jmpi	805430 <_fwalk_reent>

008046c0 <__fp_unlock>:
  8046c0:	0005883a 	mov	r2,zero
  8046c4:	f800283a 	ret

008046c8 <_cleanup_r>:
  8046c8:	01402074 	movhi	r5,129
  8046cc:	2965ef04 	addi	r5,r5,-26692
  8046d0:	08054301 	jmpi	805430 <_fwalk_reent>

008046d4 <__sinit.part.1>:
  8046d4:	defff704 	addi	sp,sp,-36
  8046d8:	00c02034 	movhi	r3,128
  8046dc:	dfc00815 	stw	ra,32(sp)
  8046e0:	ddc00715 	stw	r23,28(sp)
  8046e4:	dd800615 	stw	r22,24(sp)
  8046e8:	dd400515 	stw	r21,20(sp)
  8046ec:	dd000415 	stw	r20,16(sp)
  8046f0:	dcc00315 	stw	r19,12(sp)
  8046f4:	dc800215 	stw	r18,8(sp)
  8046f8:	dc400115 	stw	r17,4(sp)
  8046fc:	dc000015 	stw	r16,0(sp)
  804700:	18d1b204 	addi	r3,r3,18120
  804704:	24000117 	ldw	r16,4(r4)
  804708:	20c00f15 	stw	r3,60(r4)
  80470c:	2080bb04 	addi	r2,r4,748
  804710:	00c000c4 	movi	r3,3
  804714:	20c0b915 	stw	r3,740(r4)
  804718:	2080ba15 	stw	r2,744(r4)
  80471c:	2000b815 	stw	zero,736(r4)
  804720:	05c00204 	movi	r23,8
  804724:	00800104 	movi	r2,4
  804728:	2025883a 	mov	r18,r4
  80472c:	b80d883a 	mov	r6,r23
  804730:	81001704 	addi	r4,r16,92
  804734:	000b883a 	mov	r5,zero
  804738:	80000015 	stw	zero,0(r16)
  80473c:	80000115 	stw	zero,4(r16)
  804740:	80000215 	stw	zero,8(r16)
  804744:	8080030d 	sth	r2,12(r16)
  804748:	80001915 	stw	zero,100(r16)
  80474c:	8000038d 	sth	zero,14(r16)
  804750:	80000415 	stw	zero,16(r16)
  804754:	80000515 	stw	zero,20(r16)
  804758:	80000615 	stw	zero,24(r16)
  80475c:	08063200 	call	806320 <memset>
  804760:	05802034 	movhi	r22,128
  804764:	94400217 	ldw	r17,8(r18)
  804768:	05402034 	movhi	r21,128
  80476c:	05002034 	movhi	r20,128
  804770:	04c02034 	movhi	r19,128
  804774:	b59f4704 	addi	r22,r22,32028
  804778:	ad5f5e04 	addi	r21,r21,32120
  80477c:	a51f7d04 	addi	r20,r20,32244
  804780:	9cdf9404 	addi	r19,r19,32336
  804784:	85800815 	stw	r22,32(r16)
  804788:	85400915 	stw	r21,36(r16)
  80478c:	85000a15 	stw	r20,40(r16)
  804790:	84c00b15 	stw	r19,44(r16)
  804794:	84000715 	stw	r16,28(r16)
  804798:	00800284 	movi	r2,10
  80479c:	8880030d 	sth	r2,12(r17)
  8047a0:	00800044 	movi	r2,1
  8047a4:	b80d883a 	mov	r6,r23
  8047a8:	89001704 	addi	r4,r17,92
  8047ac:	000b883a 	mov	r5,zero
  8047b0:	88000015 	stw	zero,0(r17)
  8047b4:	88000115 	stw	zero,4(r17)
  8047b8:	88000215 	stw	zero,8(r17)
  8047bc:	88001915 	stw	zero,100(r17)
  8047c0:	8880038d 	sth	r2,14(r17)
  8047c4:	88000415 	stw	zero,16(r17)
  8047c8:	88000515 	stw	zero,20(r17)
  8047cc:	88000615 	stw	zero,24(r17)
  8047d0:	08063200 	call	806320 <memset>
  8047d4:	94000317 	ldw	r16,12(r18)
  8047d8:	00800484 	movi	r2,18
  8047dc:	8c400715 	stw	r17,28(r17)
  8047e0:	8d800815 	stw	r22,32(r17)
  8047e4:	8d400915 	stw	r21,36(r17)
  8047e8:	8d000a15 	stw	r20,40(r17)
  8047ec:	8cc00b15 	stw	r19,44(r17)
  8047f0:	8080030d 	sth	r2,12(r16)
  8047f4:	00800084 	movi	r2,2
  8047f8:	80000015 	stw	zero,0(r16)
  8047fc:	80000115 	stw	zero,4(r16)
  804800:	80000215 	stw	zero,8(r16)
  804804:	80001915 	stw	zero,100(r16)
  804808:	8080038d 	sth	r2,14(r16)
  80480c:	80000415 	stw	zero,16(r16)
  804810:	80000515 	stw	zero,20(r16)
  804814:	80000615 	stw	zero,24(r16)
  804818:	b80d883a 	mov	r6,r23
  80481c:	000b883a 	mov	r5,zero
  804820:	81001704 	addi	r4,r16,92
  804824:	08063200 	call	806320 <memset>
  804828:	00800044 	movi	r2,1
  80482c:	84000715 	stw	r16,28(r16)
  804830:	85800815 	stw	r22,32(r16)
  804834:	85400915 	stw	r21,36(r16)
  804838:	85000a15 	stw	r20,40(r16)
  80483c:	84c00b15 	stw	r19,44(r16)
  804840:	90800e15 	stw	r2,56(r18)
  804844:	dfc00817 	ldw	ra,32(sp)
  804848:	ddc00717 	ldw	r23,28(sp)
  80484c:	dd800617 	ldw	r22,24(sp)
  804850:	dd400517 	ldw	r21,20(sp)
  804854:	dd000417 	ldw	r20,16(sp)
  804858:	dcc00317 	ldw	r19,12(sp)
  80485c:	dc800217 	ldw	r18,8(sp)
  804860:	dc400117 	ldw	r17,4(sp)
  804864:	dc000017 	ldw	r16,0(sp)
  804868:	dec00904 	addi	sp,sp,36
  80486c:	f800283a 	ret

00804870 <__fp_lock>:
  804870:	0005883a 	mov	r2,zero
  804874:	f800283a 	ret

00804878 <__sfmoreglue>:
  804878:	defffc04 	addi	sp,sp,-16
  80487c:	dc800215 	stw	r18,8(sp)
  804880:	2825883a 	mov	r18,r5
  804884:	dc000015 	stw	r16,0(sp)
  804888:	01401a04 	movi	r5,104
  80488c:	2021883a 	mov	r16,r4
  804890:	913fffc4 	addi	r4,r18,-1
  804894:	dfc00315 	stw	ra,12(sp)
  804898:	dc400115 	stw	r17,4(sp)
  80489c:	080acec0 	call	80acec <__mulsi3>
  8048a0:	8009883a 	mov	r4,r16
  8048a4:	11401d04 	addi	r5,r2,116
  8048a8:	1023883a 	mov	r17,r2
  8048ac:	080578c0 	call	80578c <_malloc_r>
  8048b0:	1021883a 	mov	r16,r2
  8048b4:	10000726 	beq	r2,zero,8048d4 <__sfmoreglue+0x5c>
  8048b8:	11000304 	addi	r4,r2,12
  8048bc:	10000015 	stw	zero,0(r2)
  8048c0:	14800115 	stw	r18,4(r2)
  8048c4:	11000215 	stw	r4,8(r2)
  8048c8:	89801a04 	addi	r6,r17,104
  8048cc:	000b883a 	mov	r5,zero
  8048d0:	08063200 	call	806320 <memset>
  8048d4:	8005883a 	mov	r2,r16
  8048d8:	dfc00317 	ldw	ra,12(sp)
  8048dc:	dc800217 	ldw	r18,8(sp)
  8048e0:	dc400117 	ldw	r17,4(sp)
  8048e4:	dc000017 	ldw	r16,0(sp)
  8048e8:	dec00404 	addi	sp,sp,16
  8048ec:	f800283a 	ret

008048f0 <__sfp>:
  8048f0:	defffb04 	addi	sp,sp,-20
  8048f4:	dc000015 	stw	r16,0(sp)
  8048f8:	04002074 	movhi	r16,129
  8048fc:	84095d04 	addi	r16,r16,9588
  804900:	dcc00315 	stw	r19,12(sp)
  804904:	2027883a 	mov	r19,r4
  804908:	81000017 	ldw	r4,0(r16)
  80490c:	dfc00415 	stw	ra,16(sp)
  804910:	dc800215 	stw	r18,8(sp)
  804914:	20800e17 	ldw	r2,56(r4)
  804918:	dc400115 	stw	r17,4(sp)
  80491c:	1000021e 	bne	r2,zero,804928 <__sfp+0x38>
  804920:	08046d40 	call	8046d4 <__sinit.part.1>
  804924:	81000017 	ldw	r4,0(r16)
  804928:	2480b804 	addi	r18,r4,736
  80492c:	047fffc4 	movi	r17,-1
  804930:	91000117 	ldw	r4,4(r18)
  804934:	94000217 	ldw	r16,8(r18)
  804938:	213fffc4 	addi	r4,r4,-1
  80493c:	20000a16 	blt	r4,zero,804968 <__sfp+0x78>
  804940:	8080030f 	ldh	r2,12(r16)
  804944:	10000c26 	beq	r2,zero,804978 <__sfp+0x88>
  804948:	80c01d04 	addi	r3,r16,116
  80494c:	00000206 	br	804958 <__sfp+0x68>
  804950:	18bfe60f 	ldh	r2,-104(r3)
  804954:	10000826 	beq	r2,zero,804978 <__sfp+0x88>
  804958:	213fffc4 	addi	r4,r4,-1
  80495c:	1c3ffd04 	addi	r16,r3,-12
  804960:	18c01a04 	addi	r3,r3,104
  804964:	247ffa1e 	bne	r4,r17,804950 <__alt_mem_onchip_memory2+0xff7e4950>
  804968:	90800017 	ldw	r2,0(r18)
  80496c:	10001d26 	beq	r2,zero,8049e4 <__sfp+0xf4>
  804970:	1025883a 	mov	r18,r2
  804974:	003fee06 	br	804930 <__alt_mem_onchip_memory2+0xff7e4930>
  804978:	00bfffc4 	movi	r2,-1
  80497c:	8080038d 	sth	r2,14(r16)
  804980:	00800044 	movi	r2,1
  804984:	8080030d 	sth	r2,12(r16)
  804988:	80001915 	stw	zero,100(r16)
  80498c:	80000015 	stw	zero,0(r16)
  804990:	80000215 	stw	zero,8(r16)
  804994:	80000115 	stw	zero,4(r16)
  804998:	80000415 	stw	zero,16(r16)
  80499c:	80000515 	stw	zero,20(r16)
  8049a0:	80000615 	stw	zero,24(r16)
  8049a4:	01800204 	movi	r6,8
  8049a8:	000b883a 	mov	r5,zero
  8049ac:	81001704 	addi	r4,r16,92
  8049b0:	08063200 	call	806320 <memset>
  8049b4:	8005883a 	mov	r2,r16
  8049b8:	80000c15 	stw	zero,48(r16)
  8049bc:	80000d15 	stw	zero,52(r16)
  8049c0:	80001115 	stw	zero,68(r16)
  8049c4:	80001215 	stw	zero,72(r16)
  8049c8:	dfc00417 	ldw	ra,16(sp)
  8049cc:	dcc00317 	ldw	r19,12(sp)
  8049d0:	dc800217 	ldw	r18,8(sp)
  8049d4:	dc400117 	ldw	r17,4(sp)
  8049d8:	dc000017 	ldw	r16,0(sp)
  8049dc:	dec00504 	addi	sp,sp,20
  8049e0:	f800283a 	ret
  8049e4:	01400104 	movi	r5,4
  8049e8:	9809883a 	mov	r4,r19
  8049ec:	08048780 	call	804878 <__sfmoreglue>
  8049f0:	90800015 	stw	r2,0(r18)
  8049f4:	103fde1e 	bne	r2,zero,804970 <__alt_mem_onchip_memory2+0xff7e4970>
  8049f8:	00800304 	movi	r2,12
  8049fc:	98800015 	stw	r2,0(r19)
  804a00:	0005883a 	mov	r2,zero
  804a04:	003ff006 	br	8049c8 <__alt_mem_onchip_memory2+0xff7e49c8>

00804a08 <_cleanup>:
  804a08:	00802074 	movhi	r2,129
  804a0c:	10895d04 	addi	r2,r2,9588
  804a10:	11000017 	ldw	r4,0(r2)
  804a14:	01402074 	movhi	r5,129
  804a18:	2965ef04 	addi	r5,r5,-26692
  804a1c:	08054301 	jmpi	805430 <_fwalk_reent>

00804a20 <__sinit>:
  804a20:	20800e17 	ldw	r2,56(r4)
  804a24:	10000126 	beq	r2,zero,804a2c <__sinit+0xc>
  804a28:	f800283a 	ret
  804a2c:	08046d41 	jmpi	8046d4 <__sinit.part.1>

00804a30 <__sfp_lock_acquire>:
  804a30:	f800283a 	ret

00804a34 <__sfp_lock_release>:
  804a34:	f800283a 	ret

00804a38 <__sinit_lock_acquire>:
  804a38:	f800283a 	ret

00804a3c <__sinit_lock_release>:
  804a3c:	f800283a 	ret

00804a40 <__fp_lock_all>:
  804a40:	00802074 	movhi	r2,129
  804a44:	10895e04 	addi	r2,r2,9592
  804a48:	11000017 	ldw	r4,0(r2)
  804a4c:	01402034 	movhi	r5,128
  804a50:	29521c04 	addi	r5,r5,18544
  804a54:	080536c1 	jmpi	80536c <_fwalk>

00804a58 <__fp_unlock_all>:
  804a58:	00802074 	movhi	r2,129
  804a5c:	10895e04 	addi	r2,r2,9592
  804a60:	11000017 	ldw	r4,0(r2)
  804a64:	01402034 	movhi	r5,128
  804a68:	2951b004 	addi	r5,r5,18112
  804a6c:	080536c1 	jmpi	80536c <_fwalk>

00804a70 <_malloc_trim_r>:
  804a70:	defffb04 	addi	sp,sp,-20
  804a74:	dcc00315 	stw	r19,12(sp)
  804a78:	04c02074 	movhi	r19,129
  804a7c:	dc800215 	stw	r18,8(sp)
  804a80:	dc400115 	stw	r17,4(sp)
  804a84:	dc000015 	stw	r16,0(sp)
  804a88:	dfc00415 	stw	ra,16(sp)
  804a8c:	2821883a 	mov	r16,r5
  804a90:	9cc3a804 	addi	r19,r19,3744
  804a94:	2025883a 	mov	r18,r4
  804a98:	080db540 	call	80db54 <__malloc_lock>
  804a9c:	98800217 	ldw	r2,8(r19)
  804aa0:	14400117 	ldw	r17,4(r2)
  804aa4:	00bfff04 	movi	r2,-4
  804aa8:	88a2703a 	and	r17,r17,r2
  804aac:	8c21c83a 	sub	r16,r17,r16
  804ab0:	8403fbc4 	addi	r16,r16,4079
  804ab4:	8020d33a 	srli	r16,r16,12
  804ab8:	0083ffc4 	movi	r2,4095
  804abc:	843fffc4 	addi	r16,r16,-1
  804ac0:	8020933a 	slli	r16,r16,12
  804ac4:	1400060e 	bge	r2,r16,804ae0 <_malloc_trim_r+0x70>
  804ac8:	000b883a 	mov	r5,zero
  804acc:	9009883a 	mov	r4,r18
  804ad0:	0807cc80 	call	807cc8 <_sbrk_r>
  804ad4:	98c00217 	ldw	r3,8(r19)
  804ad8:	1c47883a 	add	r3,r3,r17
  804adc:	10c00a26 	beq	r2,r3,804b08 <_malloc_trim_r+0x98>
  804ae0:	9009883a 	mov	r4,r18
  804ae4:	080db780 	call	80db78 <__malloc_unlock>
  804ae8:	0005883a 	mov	r2,zero
  804aec:	dfc00417 	ldw	ra,16(sp)
  804af0:	dcc00317 	ldw	r19,12(sp)
  804af4:	dc800217 	ldw	r18,8(sp)
  804af8:	dc400117 	ldw	r17,4(sp)
  804afc:	dc000017 	ldw	r16,0(sp)
  804b00:	dec00504 	addi	sp,sp,20
  804b04:	f800283a 	ret
  804b08:	040bc83a 	sub	r5,zero,r16
  804b0c:	9009883a 	mov	r4,r18
  804b10:	0807cc80 	call	807cc8 <_sbrk_r>
  804b14:	00ffffc4 	movi	r3,-1
  804b18:	10c00d26 	beq	r2,r3,804b50 <_malloc_trim_r+0xe0>
  804b1c:	00c02074 	movhi	r3,129
  804b20:	18d06704 	addi	r3,r3,16796
  804b24:	18800017 	ldw	r2,0(r3)
  804b28:	99000217 	ldw	r4,8(r19)
  804b2c:	8c23c83a 	sub	r17,r17,r16
  804b30:	8c400054 	ori	r17,r17,1
  804b34:	1421c83a 	sub	r16,r2,r16
  804b38:	24400115 	stw	r17,4(r4)
  804b3c:	9009883a 	mov	r4,r18
  804b40:	1c000015 	stw	r16,0(r3)
  804b44:	080db780 	call	80db78 <__malloc_unlock>
  804b48:	00800044 	movi	r2,1
  804b4c:	003fe706 	br	804aec <__alt_mem_onchip_memory2+0xff7e4aec>
  804b50:	000b883a 	mov	r5,zero
  804b54:	9009883a 	mov	r4,r18
  804b58:	0807cc80 	call	807cc8 <_sbrk_r>
  804b5c:	99000217 	ldw	r4,8(r19)
  804b60:	014003c4 	movi	r5,15
  804b64:	1107c83a 	sub	r3,r2,r4
  804b68:	28ffdd0e 	bge	r5,r3,804ae0 <__alt_mem_onchip_memory2+0xff7e4ae0>
  804b6c:	01402074 	movhi	r5,129
  804b70:	29496004 	addi	r5,r5,9600
  804b74:	29400017 	ldw	r5,0(r5)
  804b78:	18c00054 	ori	r3,r3,1
  804b7c:	20c00115 	stw	r3,4(r4)
  804b80:	00c02074 	movhi	r3,129
  804b84:	1145c83a 	sub	r2,r2,r5
  804b88:	18d06704 	addi	r3,r3,16796
  804b8c:	18800015 	stw	r2,0(r3)
  804b90:	003fd306 	br	804ae0 <__alt_mem_onchip_memory2+0xff7e4ae0>

00804b94 <_free_r>:
  804b94:	28004126 	beq	r5,zero,804c9c <_free_r+0x108>
  804b98:	defffd04 	addi	sp,sp,-12
  804b9c:	dc400115 	stw	r17,4(sp)
  804ba0:	dc000015 	stw	r16,0(sp)
  804ba4:	2023883a 	mov	r17,r4
  804ba8:	2821883a 	mov	r16,r5
  804bac:	dfc00215 	stw	ra,8(sp)
  804bb0:	080db540 	call	80db54 <__malloc_lock>
  804bb4:	81ffff17 	ldw	r7,-4(r16)
  804bb8:	00bfff84 	movi	r2,-2
  804bbc:	01002074 	movhi	r4,129
  804bc0:	81bffe04 	addi	r6,r16,-8
  804bc4:	3884703a 	and	r2,r7,r2
  804bc8:	2103a804 	addi	r4,r4,3744
  804bcc:	308b883a 	add	r5,r6,r2
  804bd0:	2a400117 	ldw	r9,4(r5)
  804bd4:	22000217 	ldw	r8,8(r4)
  804bd8:	00ffff04 	movi	r3,-4
  804bdc:	48c6703a 	and	r3,r9,r3
  804be0:	2a005726 	beq	r5,r8,804d40 <_free_r+0x1ac>
  804be4:	28c00115 	stw	r3,4(r5)
  804be8:	39c0004c 	andi	r7,r7,1
  804bec:	3800091e 	bne	r7,zero,804c14 <_free_r+0x80>
  804bf0:	823ffe17 	ldw	r8,-8(r16)
  804bf4:	22400204 	addi	r9,r4,8
  804bf8:	320dc83a 	sub	r6,r6,r8
  804bfc:	31c00217 	ldw	r7,8(r6)
  804c00:	1205883a 	add	r2,r2,r8
  804c04:	3a406526 	beq	r7,r9,804d9c <_free_r+0x208>
  804c08:	32000317 	ldw	r8,12(r6)
  804c0c:	3a000315 	stw	r8,12(r7)
  804c10:	41c00215 	stw	r7,8(r8)
  804c14:	28cf883a 	add	r7,r5,r3
  804c18:	39c00117 	ldw	r7,4(r7)
  804c1c:	39c0004c 	andi	r7,r7,1
  804c20:	38003a26 	beq	r7,zero,804d0c <_free_r+0x178>
  804c24:	10c00054 	ori	r3,r2,1
  804c28:	30c00115 	stw	r3,4(r6)
  804c2c:	3087883a 	add	r3,r6,r2
  804c30:	18800015 	stw	r2,0(r3)
  804c34:	00c07fc4 	movi	r3,511
  804c38:	18801936 	bltu	r3,r2,804ca0 <_free_r+0x10c>
  804c3c:	1004d0fa 	srli	r2,r2,3
  804c40:	01c00044 	movi	r7,1
  804c44:	21400117 	ldw	r5,4(r4)
  804c48:	10c00044 	addi	r3,r2,1
  804c4c:	18c7883a 	add	r3,r3,r3
  804c50:	1005d0ba 	srai	r2,r2,2
  804c54:	18c7883a 	add	r3,r3,r3
  804c58:	18c7883a 	add	r3,r3,r3
  804c5c:	1907883a 	add	r3,r3,r4
  804c60:	3884983a 	sll	r2,r7,r2
  804c64:	19c00017 	ldw	r7,0(r3)
  804c68:	1a3ffe04 	addi	r8,r3,-8
  804c6c:	1144b03a 	or	r2,r2,r5
  804c70:	32000315 	stw	r8,12(r6)
  804c74:	31c00215 	stw	r7,8(r6)
  804c78:	20800115 	stw	r2,4(r4)
  804c7c:	19800015 	stw	r6,0(r3)
  804c80:	39800315 	stw	r6,12(r7)
  804c84:	8809883a 	mov	r4,r17
  804c88:	dfc00217 	ldw	ra,8(sp)
  804c8c:	dc400117 	ldw	r17,4(sp)
  804c90:	dc000017 	ldw	r16,0(sp)
  804c94:	dec00304 	addi	sp,sp,12
  804c98:	080db781 	jmpi	80db78 <__malloc_unlock>
  804c9c:	f800283a 	ret
  804ca0:	100ad27a 	srli	r5,r2,9
  804ca4:	00c00104 	movi	r3,4
  804ca8:	19404a36 	bltu	r3,r5,804dd4 <_free_r+0x240>
  804cac:	100ad1ba 	srli	r5,r2,6
  804cb0:	28c00e44 	addi	r3,r5,57
  804cb4:	18c7883a 	add	r3,r3,r3
  804cb8:	29400e04 	addi	r5,r5,56
  804cbc:	18c7883a 	add	r3,r3,r3
  804cc0:	18c7883a 	add	r3,r3,r3
  804cc4:	1909883a 	add	r4,r3,r4
  804cc8:	20c00017 	ldw	r3,0(r4)
  804ccc:	01c02074 	movhi	r7,129
  804cd0:	213ffe04 	addi	r4,r4,-8
  804cd4:	39c3a804 	addi	r7,r7,3744
  804cd8:	20c04426 	beq	r4,r3,804dec <_free_r+0x258>
  804cdc:	01ffff04 	movi	r7,-4
  804ce0:	19400117 	ldw	r5,4(r3)
  804ce4:	29ca703a 	and	r5,r5,r7
  804ce8:	1140022e 	bgeu	r2,r5,804cf4 <_free_r+0x160>
  804cec:	18c00217 	ldw	r3,8(r3)
  804cf0:	20fffb1e 	bne	r4,r3,804ce0 <__alt_mem_onchip_memory2+0xff7e4ce0>
  804cf4:	19000317 	ldw	r4,12(r3)
  804cf8:	31000315 	stw	r4,12(r6)
  804cfc:	30c00215 	stw	r3,8(r6)
  804d00:	21800215 	stw	r6,8(r4)
  804d04:	19800315 	stw	r6,12(r3)
  804d08:	003fde06 	br	804c84 <__alt_mem_onchip_memory2+0xff7e4c84>
  804d0c:	29c00217 	ldw	r7,8(r5)
  804d10:	10c5883a 	add	r2,r2,r3
  804d14:	00c02074 	movhi	r3,129
  804d18:	18c3aa04 	addi	r3,r3,3752
  804d1c:	38c03b26 	beq	r7,r3,804e0c <_free_r+0x278>
  804d20:	2a000317 	ldw	r8,12(r5)
  804d24:	11400054 	ori	r5,r2,1
  804d28:	3087883a 	add	r3,r6,r2
  804d2c:	3a000315 	stw	r8,12(r7)
  804d30:	41c00215 	stw	r7,8(r8)
  804d34:	31400115 	stw	r5,4(r6)
  804d38:	18800015 	stw	r2,0(r3)
  804d3c:	003fbd06 	br	804c34 <__alt_mem_onchip_memory2+0xff7e4c34>
  804d40:	39c0004c 	andi	r7,r7,1
  804d44:	10c5883a 	add	r2,r2,r3
  804d48:	3800071e 	bne	r7,zero,804d68 <_free_r+0x1d4>
  804d4c:	81fffe17 	ldw	r7,-8(r16)
  804d50:	31cdc83a 	sub	r6,r6,r7
  804d54:	30c00317 	ldw	r3,12(r6)
  804d58:	31400217 	ldw	r5,8(r6)
  804d5c:	11c5883a 	add	r2,r2,r7
  804d60:	28c00315 	stw	r3,12(r5)
  804d64:	19400215 	stw	r5,8(r3)
  804d68:	10c00054 	ori	r3,r2,1
  804d6c:	30c00115 	stw	r3,4(r6)
  804d70:	00c02074 	movhi	r3,129
  804d74:	18c96104 	addi	r3,r3,9604
  804d78:	18c00017 	ldw	r3,0(r3)
  804d7c:	21800215 	stw	r6,8(r4)
  804d80:	10ffc036 	bltu	r2,r3,804c84 <__alt_mem_onchip_memory2+0xff7e4c84>
  804d84:	00802074 	movhi	r2,129
  804d88:	10905e04 	addi	r2,r2,16760
  804d8c:	11400017 	ldw	r5,0(r2)
  804d90:	8809883a 	mov	r4,r17
  804d94:	0804a700 	call	804a70 <_malloc_trim_r>
  804d98:	003fba06 	br	804c84 <__alt_mem_onchip_memory2+0xff7e4c84>
  804d9c:	28c9883a 	add	r4,r5,r3
  804da0:	21000117 	ldw	r4,4(r4)
  804da4:	2100004c 	andi	r4,r4,1
  804da8:	2000391e 	bne	r4,zero,804e90 <_free_r+0x2fc>
  804dac:	29c00217 	ldw	r7,8(r5)
  804db0:	29000317 	ldw	r4,12(r5)
  804db4:	1885883a 	add	r2,r3,r2
  804db8:	10c00054 	ori	r3,r2,1
  804dbc:	39000315 	stw	r4,12(r7)
  804dc0:	21c00215 	stw	r7,8(r4)
  804dc4:	30c00115 	stw	r3,4(r6)
  804dc8:	308d883a 	add	r6,r6,r2
  804dcc:	30800015 	stw	r2,0(r6)
  804dd0:	003fac06 	br	804c84 <__alt_mem_onchip_memory2+0xff7e4c84>
  804dd4:	00c00504 	movi	r3,20
  804dd8:	19401536 	bltu	r3,r5,804e30 <_free_r+0x29c>
  804ddc:	28c01704 	addi	r3,r5,92
  804de0:	18c7883a 	add	r3,r3,r3
  804de4:	294016c4 	addi	r5,r5,91
  804de8:	003fb406 	br	804cbc <__alt_mem_onchip_memory2+0xff7e4cbc>
  804dec:	280bd0ba 	srai	r5,r5,2
  804df0:	00c00044 	movi	r3,1
  804df4:	38800117 	ldw	r2,4(r7)
  804df8:	194a983a 	sll	r5,r3,r5
  804dfc:	2007883a 	mov	r3,r4
  804e00:	2884b03a 	or	r2,r5,r2
  804e04:	38800115 	stw	r2,4(r7)
  804e08:	003fbb06 	br	804cf8 <__alt_mem_onchip_memory2+0xff7e4cf8>
  804e0c:	21800515 	stw	r6,20(r4)
  804e10:	21800415 	stw	r6,16(r4)
  804e14:	10c00054 	ori	r3,r2,1
  804e18:	31c00315 	stw	r7,12(r6)
  804e1c:	31c00215 	stw	r7,8(r6)
  804e20:	30c00115 	stw	r3,4(r6)
  804e24:	308d883a 	add	r6,r6,r2
  804e28:	30800015 	stw	r2,0(r6)
  804e2c:	003f9506 	br	804c84 <__alt_mem_onchip_memory2+0xff7e4c84>
  804e30:	00c01504 	movi	r3,84
  804e34:	19400536 	bltu	r3,r5,804e4c <_free_r+0x2b8>
  804e38:	100ad33a 	srli	r5,r2,12
  804e3c:	28c01bc4 	addi	r3,r5,111
  804e40:	18c7883a 	add	r3,r3,r3
  804e44:	29401b84 	addi	r5,r5,110
  804e48:	003f9c06 	br	804cbc <__alt_mem_onchip_memory2+0xff7e4cbc>
  804e4c:	00c05504 	movi	r3,340
  804e50:	19400536 	bltu	r3,r5,804e68 <_free_r+0x2d4>
  804e54:	100ad3fa 	srli	r5,r2,15
  804e58:	28c01e04 	addi	r3,r5,120
  804e5c:	18c7883a 	add	r3,r3,r3
  804e60:	29401dc4 	addi	r5,r5,119
  804e64:	003f9506 	br	804cbc <__alt_mem_onchip_memory2+0xff7e4cbc>
  804e68:	00c15504 	movi	r3,1364
  804e6c:	19400536 	bltu	r3,r5,804e84 <_free_r+0x2f0>
  804e70:	100ad4ba 	srli	r5,r2,18
  804e74:	28c01f44 	addi	r3,r5,125
  804e78:	18c7883a 	add	r3,r3,r3
  804e7c:	29401f04 	addi	r5,r5,124
  804e80:	003f8e06 	br	804cbc <__alt_mem_onchip_memory2+0xff7e4cbc>
  804e84:	00c03f84 	movi	r3,254
  804e88:	01401f84 	movi	r5,126
  804e8c:	003f8b06 	br	804cbc <__alt_mem_onchip_memory2+0xff7e4cbc>
  804e90:	10c00054 	ori	r3,r2,1
  804e94:	30c00115 	stw	r3,4(r6)
  804e98:	308d883a 	add	r6,r6,r2
  804e9c:	30800015 	stw	r2,0(r6)
  804ea0:	003f7806 	br	804c84 <__alt_mem_onchip_memory2+0xff7e4c84>

00804ea4 <__sfvwrite_r>:
  804ea4:	30800217 	ldw	r2,8(r6)
  804ea8:	10006726 	beq	r2,zero,805048 <__sfvwrite_r+0x1a4>
  804eac:	28c0030b 	ldhu	r3,12(r5)
  804eb0:	defff404 	addi	sp,sp,-48
  804eb4:	dd400715 	stw	r21,28(sp)
  804eb8:	dd000615 	stw	r20,24(sp)
  804ebc:	dc000215 	stw	r16,8(sp)
  804ec0:	dfc00b15 	stw	ra,44(sp)
  804ec4:	df000a15 	stw	fp,40(sp)
  804ec8:	ddc00915 	stw	r23,36(sp)
  804ecc:	dd800815 	stw	r22,32(sp)
  804ed0:	dcc00515 	stw	r19,20(sp)
  804ed4:	dc800415 	stw	r18,16(sp)
  804ed8:	dc400315 	stw	r17,12(sp)
  804edc:	1880020c 	andi	r2,r3,8
  804ee0:	2821883a 	mov	r16,r5
  804ee4:	202b883a 	mov	r21,r4
  804ee8:	3029883a 	mov	r20,r6
  804eec:	10002726 	beq	r2,zero,804f8c <__sfvwrite_r+0xe8>
  804ef0:	28800417 	ldw	r2,16(r5)
  804ef4:	10002526 	beq	r2,zero,804f8c <__sfvwrite_r+0xe8>
  804ef8:	1880008c 	andi	r2,r3,2
  804efc:	a4400017 	ldw	r17,0(r20)
  804f00:	10002a26 	beq	r2,zero,804fac <__sfvwrite_r+0x108>
  804f04:	05a00034 	movhi	r22,32768
  804f08:	0027883a 	mov	r19,zero
  804f0c:	0025883a 	mov	r18,zero
  804f10:	b5bf0004 	addi	r22,r22,-1024
  804f14:	980d883a 	mov	r6,r19
  804f18:	a809883a 	mov	r4,r21
  804f1c:	90004626 	beq	r18,zero,805038 <__sfvwrite_r+0x194>
  804f20:	900f883a 	mov	r7,r18
  804f24:	b480022e 	bgeu	r22,r18,804f30 <__sfvwrite_r+0x8c>
  804f28:	01e00034 	movhi	r7,32768
  804f2c:	39ff0004 	addi	r7,r7,-1024
  804f30:	80800917 	ldw	r2,36(r16)
  804f34:	81400717 	ldw	r5,28(r16)
  804f38:	103ee83a 	callr	r2
  804f3c:	00805a0e 	bge	zero,r2,8050a8 <__sfvwrite_r+0x204>
  804f40:	a0c00217 	ldw	r3,8(r20)
  804f44:	98a7883a 	add	r19,r19,r2
  804f48:	90a5c83a 	sub	r18,r18,r2
  804f4c:	1885c83a 	sub	r2,r3,r2
  804f50:	a0800215 	stw	r2,8(r20)
  804f54:	103fef1e 	bne	r2,zero,804f14 <__alt_mem_onchip_memory2+0xff7e4f14>
  804f58:	0005883a 	mov	r2,zero
  804f5c:	dfc00b17 	ldw	ra,44(sp)
  804f60:	df000a17 	ldw	fp,40(sp)
  804f64:	ddc00917 	ldw	r23,36(sp)
  804f68:	dd800817 	ldw	r22,32(sp)
  804f6c:	dd400717 	ldw	r21,28(sp)
  804f70:	dd000617 	ldw	r20,24(sp)
  804f74:	dcc00517 	ldw	r19,20(sp)
  804f78:	dc800417 	ldw	r18,16(sp)
  804f7c:	dc400317 	ldw	r17,12(sp)
  804f80:	dc000217 	ldw	r16,8(sp)
  804f84:	dec00c04 	addi	sp,sp,48
  804f88:	f800283a 	ret
  804f8c:	800b883a 	mov	r5,r16
  804f90:	a809883a 	mov	r4,r21
  804f94:	0802a140 	call	802a14 <__swsetup_r>
  804f98:	1000ee1e 	bne	r2,zero,805354 <__sfvwrite_r+0x4b0>
  804f9c:	80c0030b 	ldhu	r3,12(r16)
  804fa0:	a4400017 	ldw	r17,0(r20)
  804fa4:	1880008c 	andi	r2,r3,2
  804fa8:	103fd61e 	bne	r2,zero,804f04 <__alt_mem_onchip_memory2+0xff7e4f04>
  804fac:	1880004c 	andi	r2,r3,1
  804fb0:	1000421e 	bne	r2,zero,8050bc <__sfvwrite_r+0x218>
  804fb4:	0039883a 	mov	fp,zero
  804fb8:	0025883a 	mov	r18,zero
  804fbc:	90001a26 	beq	r18,zero,805028 <__sfvwrite_r+0x184>
  804fc0:	1880800c 	andi	r2,r3,512
  804fc4:	84c00217 	ldw	r19,8(r16)
  804fc8:	10002126 	beq	r2,zero,805050 <__sfvwrite_r+0x1ac>
  804fcc:	982f883a 	mov	r23,r19
  804fd0:	94c09636 	bltu	r18,r19,80522c <__sfvwrite_r+0x388>
  804fd4:	1881200c 	andi	r2,r3,1152
  804fd8:	1000a11e 	bne	r2,zero,805260 <__sfvwrite_r+0x3bc>
  804fdc:	81000017 	ldw	r4,0(r16)
  804fe0:	b80d883a 	mov	r6,r23
  804fe4:	e00b883a 	mov	r5,fp
  804fe8:	08061c40 	call	8061c4 <memmove>
  804fec:	80c00217 	ldw	r3,8(r16)
  804ff0:	81000017 	ldw	r4,0(r16)
  804ff4:	9005883a 	mov	r2,r18
  804ff8:	1ce7c83a 	sub	r19,r3,r19
  804ffc:	25cf883a 	add	r7,r4,r23
  805000:	84c00215 	stw	r19,8(r16)
  805004:	81c00015 	stw	r7,0(r16)
  805008:	a0c00217 	ldw	r3,8(r20)
  80500c:	e0b9883a 	add	fp,fp,r2
  805010:	90a5c83a 	sub	r18,r18,r2
  805014:	18a7c83a 	sub	r19,r3,r2
  805018:	a4c00215 	stw	r19,8(r20)
  80501c:	983fce26 	beq	r19,zero,804f58 <__alt_mem_onchip_memory2+0xff7e4f58>
  805020:	80c0030b 	ldhu	r3,12(r16)
  805024:	903fe61e 	bne	r18,zero,804fc0 <__alt_mem_onchip_memory2+0xff7e4fc0>
  805028:	8f000017 	ldw	fp,0(r17)
  80502c:	8c800117 	ldw	r18,4(r17)
  805030:	8c400204 	addi	r17,r17,8
  805034:	003fe106 	br	804fbc <__alt_mem_onchip_memory2+0xff7e4fbc>
  805038:	8cc00017 	ldw	r19,0(r17)
  80503c:	8c800117 	ldw	r18,4(r17)
  805040:	8c400204 	addi	r17,r17,8
  805044:	003fb306 	br	804f14 <__alt_mem_onchip_memory2+0xff7e4f14>
  805048:	0005883a 	mov	r2,zero
  80504c:	f800283a 	ret
  805050:	81000017 	ldw	r4,0(r16)
  805054:	80800417 	ldw	r2,16(r16)
  805058:	11005a36 	bltu	r2,r4,8051c4 <__sfvwrite_r+0x320>
  80505c:	85c00517 	ldw	r23,20(r16)
  805060:	95c05836 	bltu	r18,r23,8051c4 <__sfvwrite_r+0x320>
  805064:	00a00034 	movhi	r2,32768
  805068:	10bfffc4 	addi	r2,r2,-1
  80506c:	9009883a 	mov	r4,r18
  805070:	1480012e 	bgeu	r2,r18,805078 <__sfvwrite_r+0x1d4>
  805074:	1009883a 	mov	r4,r2
  805078:	b80b883a 	mov	r5,r23
  80507c:	080ab380 	call	80ab38 <__divsi3>
  805080:	b80b883a 	mov	r5,r23
  805084:	1009883a 	mov	r4,r2
  805088:	080acec0 	call	80acec <__mulsi3>
  80508c:	81400717 	ldw	r5,28(r16)
  805090:	80c00917 	ldw	r3,36(r16)
  805094:	100f883a 	mov	r7,r2
  805098:	e00d883a 	mov	r6,fp
  80509c:	a809883a 	mov	r4,r21
  8050a0:	183ee83a 	callr	r3
  8050a4:	00bfd816 	blt	zero,r2,805008 <__alt_mem_onchip_memory2+0xff7e5008>
  8050a8:	8080030b 	ldhu	r2,12(r16)
  8050ac:	10801014 	ori	r2,r2,64
  8050b0:	8080030d 	sth	r2,12(r16)
  8050b4:	00bfffc4 	movi	r2,-1
  8050b8:	003fa806 	br	804f5c <__alt_mem_onchip_memory2+0xff7e4f5c>
  8050bc:	0027883a 	mov	r19,zero
  8050c0:	0011883a 	mov	r8,zero
  8050c4:	0039883a 	mov	fp,zero
  8050c8:	0025883a 	mov	r18,zero
  8050cc:	90001f26 	beq	r18,zero,80514c <__sfvwrite_r+0x2a8>
  8050d0:	40005a26 	beq	r8,zero,80523c <__sfvwrite_r+0x398>
  8050d4:	982d883a 	mov	r22,r19
  8050d8:	94c0012e 	bgeu	r18,r19,8050e0 <__sfvwrite_r+0x23c>
  8050dc:	902d883a 	mov	r22,r18
  8050e0:	81000017 	ldw	r4,0(r16)
  8050e4:	80800417 	ldw	r2,16(r16)
  8050e8:	b02f883a 	mov	r23,r22
  8050ec:	81c00517 	ldw	r7,20(r16)
  8050f0:	1100032e 	bgeu	r2,r4,805100 <__sfvwrite_r+0x25c>
  8050f4:	80c00217 	ldw	r3,8(r16)
  8050f8:	38c7883a 	add	r3,r7,r3
  8050fc:	1d801816 	blt	r3,r22,805160 <__sfvwrite_r+0x2bc>
  805100:	b1c03e16 	blt	r22,r7,8051fc <__sfvwrite_r+0x358>
  805104:	80800917 	ldw	r2,36(r16)
  805108:	81400717 	ldw	r5,28(r16)
  80510c:	e00d883a 	mov	r6,fp
  805110:	da000115 	stw	r8,4(sp)
  805114:	a809883a 	mov	r4,r21
  805118:	103ee83a 	callr	r2
  80511c:	102f883a 	mov	r23,r2
  805120:	da000117 	ldw	r8,4(sp)
  805124:	00bfe00e 	bge	zero,r2,8050a8 <__alt_mem_onchip_memory2+0xff7e50a8>
  805128:	9de7c83a 	sub	r19,r19,r23
  80512c:	98001f26 	beq	r19,zero,8051ac <__sfvwrite_r+0x308>
  805130:	a0800217 	ldw	r2,8(r20)
  805134:	e5f9883a 	add	fp,fp,r23
  805138:	95e5c83a 	sub	r18,r18,r23
  80513c:	15efc83a 	sub	r23,r2,r23
  805140:	a5c00215 	stw	r23,8(r20)
  805144:	b83f8426 	beq	r23,zero,804f58 <__alt_mem_onchip_memory2+0xff7e4f58>
  805148:	903fe11e 	bne	r18,zero,8050d0 <__alt_mem_onchip_memory2+0xff7e50d0>
  80514c:	8f000017 	ldw	fp,0(r17)
  805150:	8c800117 	ldw	r18,4(r17)
  805154:	0011883a 	mov	r8,zero
  805158:	8c400204 	addi	r17,r17,8
  80515c:	003fdb06 	br	8050cc <__alt_mem_onchip_memory2+0xff7e50cc>
  805160:	180d883a 	mov	r6,r3
  805164:	e00b883a 	mov	r5,fp
  805168:	da000115 	stw	r8,4(sp)
  80516c:	d8c00015 	stw	r3,0(sp)
  805170:	08061c40 	call	8061c4 <memmove>
  805174:	d8c00017 	ldw	r3,0(sp)
  805178:	80800017 	ldw	r2,0(r16)
  80517c:	800b883a 	mov	r5,r16
  805180:	a809883a 	mov	r4,r21
  805184:	10c5883a 	add	r2,r2,r3
  805188:	80800015 	stw	r2,0(r16)
  80518c:	d8c00015 	stw	r3,0(sp)
  805190:	08046340 	call	804634 <_fflush_r>
  805194:	d8c00017 	ldw	r3,0(sp)
  805198:	da000117 	ldw	r8,4(sp)
  80519c:	103fc21e 	bne	r2,zero,8050a8 <__alt_mem_onchip_memory2+0xff7e50a8>
  8051a0:	182f883a 	mov	r23,r3
  8051a4:	9de7c83a 	sub	r19,r19,r23
  8051a8:	983fe11e 	bne	r19,zero,805130 <__alt_mem_onchip_memory2+0xff7e5130>
  8051ac:	800b883a 	mov	r5,r16
  8051b0:	a809883a 	mov	r4,r21
  8051b4:	08046340 	call	804634 <_fflush_r>
  8051b8:	103fbb1e 	bne	r2,zero,8050a8 <__alt_mem_onchip_memory2+0xff7e50a8>
  8051bc:	0011883a 	mov	r8,zero
  8051c0:	003fdb06 	br	805130 <__alt_mem_onchip_memory2+0xff7e5130>
  8051c4:	94c0012e 	bgeu	r18,r19,8051cc <__sfvwrite_r+0x328>
  8051c8:	9027883a 	mov	r19,r18
  8051cc:	980d883a 	mov	r6,r19
  8051d0:	e00b883a 	mov	r5,fp
  8051d4:	08061c40 	call	8061c4 <memmove>
  8051d8:	80800217 	ldw	r2,8(r16)
  8051dc:	80c00017 	ldw	r3,0(r16)
  8051e0:	14c5c83a 	sub	r2,r2,r19
  8051e4:	1cc7883a 	add	r3,r3,r19
  8051e8:	80800215 	stw	r2,8(r16)
  8051ec:	80c00015 	stw	r3,0(r16)
  8051f0:	10004326 	beq	r2,zero,805300 <__sfvwrite_r+0x45c>
  8051f4:	9805883a 	mov	r2,r19
  8051f8:	003f8306 	br	805008 <__alt_mem_onchip_memory2+0xff7e5008>
  8051fc:	b00d883a 	mov	r6,r22
  805200:	e00b883a 	mov	r5,fp
  805204:	da000115 	stw	r8,4(sp)
  805208:	08061c40 	call	8061c4 <memmove>
  80520c:	80800217 	ldw	r2,8(r16)
  805210:	80c00017 	ldw	r3,0(r16)
  805214:	da000117 	ldw	r8,4(sp)
  805218:	1585c83a 	sub	r2,r2,r22
  80521c:	1dad883a 	add	r22,r3,r22
  805220:	80800215 	stw	r2,8(r16)
  805224:	85800015 	stw	r22,0(r16)
  805228:	003fbf06 	br	805128 <__alt_mem_onchip_memory2+0xff7e5128>
  80522c:	81000017 	ldw	r4,0(r16)
  805230:	9027883a 	mov	r19,r18
  805234:	902f883a 	mov	r23,r18
  805238:	003f6906 	br	804fe0 <__alt_mem_onchip_memory2+0xff7e4fe0>
  80523c:	900d883a 	mov	r6,r18
  805240:	01400284 	movi	r5,10
  805244:	e009883a 	mov	r4,fp
  805248:	0805f980 	call	805f98 <memchr>
  80524c:	10003e26 	beq	r2,zero,805348 <__sfvwrite_r+0x4a4>
  805250:	10800044 	addi	r2,r2,1
  805254:	1727c83a 	sub	r19,r2,fp
  805258:	02000044 	movi	r8,1
  80525c:	003f9d06 	br	8050d4 <__alt_mem_onchip_memory2+0xff7e50d4>
  805260:	80800517 	ldw	r2,20(r16)
  805264:	81400417 	ldw	r5,16(r16)
  805268:	81c00017 	ldw	r7,0(r16)
  80526c:	10a7883a 	add	r19,r2,r2
  805270:	9885883a 	add	r2,r19,r2
  805274:	1026d7fa 	srli	r19,r2,31
  805278:	396dc83a 	sub	r22,r7,r5
  80527c:	b1000044 	addi	r4,r22,1
  805280:	9885883a 	add	r2,r19,r2
  805284:	1027d07a 	srai	r19,r2,1
  805288:	2485883a 	add	r2,r4,r18
  80528c:	980d883a 	mov	r6,r19
  805290:	9880022e 	bgeu	r19,r2,80529c <__sfvwrite_r+0x3f8>
  805294:	1027883a 	mov	r19,r2
  805298:	100d883a 	mov	r6,r2
  80529c:	18c1000c 	andi	r3,r3,1024
  8052a0:	18001c26 	beq	r3,zero,805314 <__sfvwrite_r+0x470>
  8052a4:	300b883a 	mov	r5,r6
  8052a8:	a809883a 	mov	r4,r21
  8052ac:	080578c0 	call	80578c <_malloc_r>
  8052b0:	102f883a 	mov	r23,r2
  8052b4:	10002926 	beq	r2,zero,80535c <__sfvwrite_r+0x4b8>
  8052b8:	81400417 	ldw	r5,16(r16)
  8052bc:	b00d883a 	mov	r6,r22
  8052c0:	1009883a 	mov	r4,r2
  8052c4:	080607c0 	call	80607c <memcpy>
  8052c8:	8080030b 	ldhu	r2,12(r16)
  8052cc:	00fedfc4 	movi	r3,-1153
  8052d0:	10c4703a 	and	r2,r2,r3
  8052d4:	10802014 	ori	r2,r2,128
  8052d8:	8080030d 	sth	r2,12(r16)
  8052dc:	bd89883a 	add	r4,r23,r22
  8052e0:	9d8fc83a 	sub	r7,r19,r22
  8052e4:	85c00415 	stw	r23,16(r16)
  8052e8:	84c00515 	stw	r19,20(r16)
  8052ec:	81000015 	stw	r4,0(r16)
  8052f0:	9027883a 	mov	r19,r18
  8052f4:	81c00215 	stw	r7,8(r16)
  8052f8:	902f883a 	mov	r23,r18
  8052fc:	003f3806 	br	804fe0 <__alt_mem_onchip_memory2+0xff7e4fe0>
  805300:	800b883a 	mov	r5,r16
  805304:	a809883a 	mov	r4,r21
  805308:	08046340 	call	804634 <_fflush_r>
  80530c:	103fb926 	beq	r2,zero,8051f4 <__alt_mem_onchip_memory2+0xff7e51f4>
  805310:	003f6506 	br	8050a8 <__alt_mem_onchip_memory2+0xff7e50a8>
  805314:	a809883a 	mov	r4,r21
  805318:	08075000 	call	807500 <_realloc_r>
  80531c:	102f883a 	mov	r23,r2
  805320:	103fee1e 	bne	r2,zero,8052dc <__alt_mem_onchip_memory2+0xff7e52dc>
  805324:	81400417 	ldw	r5,16(r16)
  805328:	a809883a 	mov	r4,r21
  80532c:	0804b940 	call	804b94 <_free_r>
  805330:	8080030b 	ldhu	r2,12(r16)
  805334:	00ffdfc4 	movi	r3,-129
  805338:	1884703a 	and	r2,r3,r2
  80533c:	00c00304 	movi	r3,12
  805340:	a8c00015 	stw	r3,0(r21)
  805344:	003f5906 	br	8050ac <__alt_mem_onchip_memory2+0xff7e50ac>
  805348:	94c00044 	addi	r19,r18,1
  80534c:	02000044 	movi	r8,1
  805350:	003f6006 	br	8050d4 <__alt_mem_onchip_memory2+0xff7e50d4>
  805354:	00bfffc4 	movi	r2,-1
  805358:	003f0006 	br	804f5c <__alt_mem_onchip_memory2+0xff7e4f5c>
  80535c:	00800304 	movi	r2,12
  805360:	a8800015 	stw	r2,0(r21)
  805364:	8080030b 	ldhu	r2,12(r16)
  805368:	003f5006 	br	8050ac <__alt_mem_onchip_memory2+0xff7e50ac>

0080536c <_fwalk>:
  80536c:	defff704 	addi	sp,sp,-36
  805370:	dd000415 	stw	r20,16(sp)
  805374:	dfc00815 	stw	ra,32(sp)
  805378:	ddc00715 	stw	r23,28(sp)
  80537c:	dd800615 	stw	r22,24(sp)
  805380:	dd400515 	stw	r21,20(sp)
  805384:	dcc00315 	stw	r19,12(sp)
  805388:	dc800215 	stw	r18,8(sp)
  80538c:	dc400115 	stw	r17,4(sp)
  805390:	dc000015 	stw	r16,0(sp)
  805394:	2500b804 	addi	r20,r4,736
  805398:	a0002326 	beq	r20,zero,805428 <_fwalk+0xbc>
  80539c:	282b883a 	mov	r21,r5
  8053a0:	002f883a 	mov	r23,zero
  8053a4:	05800044 	movi	r22,1
  8053a8:	04ffffc4 	movi	r19,-1
  8053ac:	a4400117 	ldw	r17,4(r20)
  8053b0:	a4800217 	ldw	r18,8(r20)
  8053b4:	8c7fffc4 	addi	r17,r17,-1
  8053b8:	88000d16 	blt	r17,zero,8053f0 <_fwalk+0x84>
  8053bc:	94000304 	addi	r16,r18,12
  8053c0:	94800384 	addi	r18,r18,14
  8053c4:	8080000b 	ldhu	r2,0(r16)
  8053c8:	8c7fffc4 	addi	r17,r17,-1
  8053cc:	813ffd04 	addi	r4,r16,-12
  8053d0:	b080042e 	bgeu	r22,r2,8053e4 <_fwalk+0x78>
  8053d4:	9080000f 	ldh	r2,0(r18)
  8053d8:	14c00226 	beq	r2,r19,8053e4 <_fwalk+0x78>
  8053dc:	a83ee83a 	callr	r21
  8053e0:	b8aeb03a 	or	r23,r23,r2
  8053e4:	84001a04 	addi	r16,r16,104
  8053e8:	94801a04 	addi	r18,r18,104
  8053ec:	8cfff51e 	bne	r17,r19,8053c4 <__alt_mem_onchip_memory2+0xff7e53c4>
  8053f0:	a5000017 	ldw	r20,0(r20)
  8053f4:	a03fed1e 	bne	r20,zero,8053ac <__alt_mem_onchip_memory2+0xff7e53ac>
  8053f8:	b805883a 	mov	r2,r23
  8053fc:	dfc00817 	ldw	ra,32(sp)
  805400:	ddc00717 	ldw	r23,28(sp)
  805404:	dd800617 	ldw	r22,24(sp)
  805408:	dd400517 	ldw	r21,20(sp)
  80540c:	dd000417 	ldw	r20,16(sp)
  805410:	dcc00317 	ldw	r19,12(sp)
  805414:	dc800217 	ldw	r18,8(sp)
  805418:	dc400117 	ldw	r17,4(sp)
  80541c:	dc000017 	ldw	r16,0(sp)
  805420:	dec00904 	addi	sp,sp,36
  805424:	f800283a 	ret
  805428:	002f883a 	mov	r23,zero
  80542c:	003ff206 	br	8053f8 <__alt_mem_onchip_memory2+0xff7e53f8>

00805430 <_fwalk_reent>:
  805430:	defff704 	addi	sp,sp,-36
  805434:	dd000415 	stw	r20,16(sp)
  805438:	dfc00815 	stw	ra,32(sp)
  80543c:	ddc00715 	stw	r23,28(sp)
  805440:	dd800615 	stw	r22,24(sp)
  805444:	dd400515 	stw	r21,20(sp)
  805448:	dcc00315 	stw	r19,12(sp)
  80544c:	dc800215 	stw	r18,8(sp)
  805450:	dc400115 	stw	r17,4(sp)
  805454:	dc000015 	stw	r16,0(sp)
  805458:	2500b804 	addi	r20,r4,736
  80545c:	a0002326 	beq	r20,zero,8054ec <_fwalk_reent+0xbc>
  805460:	282b883a 	mov	r21,r5
  805464:	2027883a 	mov	r19,r4
  805468:	002f883a 	mov	r23,zero
  80546c:	05800044 	movi	r22,1
  805470:	04bfffc4 	movi	r18,-1
  805474:	a4400117 	ldw	r17,4(r20)
  805478:	a4000217 	ldw	r16,8(r20)
  80547c:	8c7fffc4 	addi	r17,r17,-1
  805480:	88000c16 	blt	r17,zero,8054b4 <_fwalk_reent+0x84>
  805484:	84000304 	addi	r16,r16,12
  805488:	8080000b 	ldhu	r2,0(r16)
  80548c:	8c7fffc4 	addi	r17,r17,-1
  805490:	817ffd04 	addi	r5,r16,-12
  805494:	b080052e 	bgeu	r22,r2,8054ac <_fwalk_reent+0x7c>
  805498:	8080008f 	ldh	r2,2(r16)
  80549c:	9809883a 	mov	r4,r19
  8054a0:	14800226 	beq	r2,r18,8054ac <_fwalk_reent+0x7c>
  8054a4:	a83ee83a 	callr	r21
  8054a8:	b8aeb03a 	or	r23,r23,r2
  8054ac:	84001a04 	addi	r16,r16,104
  8054b0:	8cbff51e 	bne	r17,r18,805488 <__alt_mem_onchip_memory2+0xff7e5488>
  8054b4:	a5000017 	ldw	r20,0(r20)
  8054b8:	a03fee1e 	bne	r20,zero,805474 <__alt_mem_onchip_memory2+0xff7e5474>
  8054bc:	b805883a 	mov	r2,r23
  8054c0:	dfc00817 	ldw	ra,32(sp)
  8054c4:	ddc00717 	ldw	r23,28(sp)
  8054c8:	dd800617 	ldw	r22,24(sp)
  8054cc:	dd400517 	ldw	r21,20(sp)
  8054d0:	dd000417 	ldw	r20,16(sp)
  8054d4:	dcc00317 	ldw	r19,12(sp)
  8054d8:	dc800217 	ldw	r18,8(sp)
  8054dc:	dc400117 	ldw	r17,4(sp)
  8054e0:	dc000017 	ldw	r16,0(sp)
  8054e4:	dec00904 	addi	sp,sp,36
  8054e8:	f800283a 	ret
  8054ec:	002f883a 	mov	r23,zero
  8054f0:	003ff206 	br	8054bc <__alt_mem_onchip_memory2+0xff7e54bc>

008054f4 <_setlocale_r>:
  8054f4:	30001b26 	beq	r6,zero,805564 <_setlocale_r+0x70>
  8054f8:	01402074 	movhi	r5,129
  8054fc:	defffe04 	addi	sp,sp,-8
  805500:	2941df04 	addi	r5,r5,1916
  805504:	3009883a 	mov	r4,r6
  805508:	dc000015 	stw	r16,0(sp)
  80550c:	dfc00115 	stw	ra,4(sp)
  805510:	3021883a 	mov	r16,r6
  805514:	0807e580 	call	807e58 <strcmp>
  805518:	1000061e 	bne	r2,zero,805534 <_setlocale_r+0x40>
  80551c:	00802074 	movhi	r2,129
  805520:	1081c004 	addi	r2,r2,1792
  805524:	dfc00117 	ldw	ra,4(sp)
  805528:	dc000017 	ldw	r16,0(sp)
  80552c:	dec00204 	addi	sp,sp,8
  805530:	f800283a 	ret
  805534:	01402074 	movhi	r5,129
  805538:	2941c004 	addi	r5,r5,1792
  80553c:	8009883a 	mov	r4,r16
  805540:	0807e580 	call	807e58 <strcmp>
  805544:	103ff526 	beq	r2,zero,80551c <__alt_mem_onchip_memory2+0xff7e551c>
  805548:	01402074 	movhi	r5,129
  80554c:	2941ca04 	addi	r5,r5,1832
  805550:	8009883a 	mov	r4,r16
  805554:	0807e580 	call	807e58 <strcmp>
  805558:	103ff026 	beq	r2,zero,80551c <__alt_mem_onchip_memory2+0xff7e551c>
  80555c:	0005883a 	mov	r2,zero
  805560:	003ff006 	br	805524 <__alt_mem_onchip_memory2+0xff7e5524>
  805564:	00802074 	movhi	r2,129
  805568:	1081c004 	addi	r2,r2,1792
  80556c:	f800283a 	ret

00805570 <__locale_charset>:
  805570:	00802074 	movhi	r2,129
  805574:	10839204 	addi	r2,r2,3656
  805578:	f800283a 	ret

0080557c <__locale_mb_cur_max>:
